
 Start         Length     Name                   Class
 0001:00000000 00014D88H .text                   CODE
 0002:00000000 00000368H .data                   DATA
 0002:00000368 00000025H .bss                    BSS


Detailed map of segments

 0001:00000000 00000286 C=CODE     S=.text    G=(none)   M=System   ACBP=A9
 0001:00000288 000001EC C=CODE     S=.text    G=(none)   M=SysInit  ACBP=A9
 0001:00000474 000000B8 C=CODE     S=.text    G=(none)   M=ADOConst ACBP=A9
 0001:0000052C 00000058 C=CODE     S=.text    G=(none)   M=Windows  ACBP=A9
 0001:00000584 0000000E C=CODE     S=.text    G=(none)   M=Types    ACBP=A9
 0001:00000594 0000016E C=CODE     S=.text    G=(none)   M=Variants ACBP=A9
 0001:00000704 000000C6 C=CODE     S=.text    G=(none)   M=SysUtils ACBP=A9
 0001:000007CC 0000000E C=CODE     S=.text    G=(none)   M=SysConst ACBP=A9
 0001:000007DC 0000000E C=CODE     S=.text    G=(none)   M=VarUtils ACBP=A9
 0001:000007EC 0000002E C=CODE     S=.text    G=(none)   M=ActiveX  ACBP=A9
 0001:0000081C 00000038 C=CODE     S=.text    G=(none)   M=Messages ACBP=A9
 0001:00000854 000001EE C=CODE     S=.text    G=(none)   M=Classes  ACBP=A9
 0001:00000A44 0000000E C=CODE     S=.text    G=(none)   M=TypInfo  ACBP=A9
 0001:00000A54 0000000E C=CODE     S=.text    G=(none)   M=RTLConsts ACBP=A9
 0001:00000A64 0000053E C=CODE     S=.text    G=(none)   M=DB       ACBP=A9
 0001:00000FA4 0000000E C=CODE     S=.text    G=(none)   M=FMTBcd   ACBP=A9
 0001:00000FB4 0000000E C=CODE     S=.text    G=(none)   M=Math     ACBP=A9
 0001:00000FC4 0000000E C=CODE     S=.text    G=(none)   M=DBConsts ACBP=A9
 0001:00000FD4 0000000E C=CODE     S=.text    G=(none)   M=SqlTimSt ACBP=A9
 0001:00000FE4 0000000E C=CODE     S=.text    G=(none)   M=DateUtils ACBP=A9
 0001:00000FF4 0000000E C=CODE     S=.text    G=(none)   M=MaskUtils ACBP=A9
 0001:00001004 00000026 C=CODE     S=.text    G=(none)   M=ComObj   ACBP=A9
 0001:0000102C 0000000E C=CODE     S=.text    G=(none)   M=ComConst ACBP=A9
 0001:0000103C 0000000E C=CODE     S=.text    G=(none)   M=OleDB    ACBP=A9
 0001:0000104C 0000000E C=CODE     S=.text    G=(none)   M=ADOInt   ACBP=A9
 0001:0000105C 00000016 C=CODE     S=.text    G=(none)   M=DBCommon ACBP=A9
 0001:00001074 00000016 C=CODE     S=.text    G=(none)   M=Mtx      ACBP=A9
 0001:0000108C 00013BE2 C=CODE     S=.text    G=(none)   M=ADODB    ACBP=A9
 0001:00014C70 00000115 C=CODE     S=.text    G=(none)   M=adortl   ACBP=A9
 0002:00000000 00000030 C=DATA     S=.data    G=DGROUP   M=SysInit  ACBP=A9
 0002:00000030 000002AC C=DATA     S=.data    G=DGROUP   M=ADODB    ACBP=A9
 0002:00001000 00000010 C=BSS      S=.bss     G=DGROUP   M=SysInit  ACBP=A9
 0002:00001010 00000004 C=BSS      S=.bss     G=DGROUP   M=ADOConst ACBP=A9
 0002:00001014 00000004 C=BSS      S=.bss     G=DGROUP   M=Windows  ACBP=A9
 0002:00001018 00000004 C=BSS      S=.bss     G=DGROUP   M=Messages ACBP=A9
 0002:0000101C 00000008 C=BSS      S=.bss     G=DGROUP   M=ADODB    ACBP=A9


  Address         Publics by Name

 0002:00001008       .1
 0002:00001018       .1
 0002:00001010       .1
 0002:00001014       .3
 0002:0000101C       .31
 0001:00014D60       @GetPackageInfoTable
 0001:000003C0       @InitPkg
 0001:00014D68       @PackageLoad
 0001:00000424       @PackageLoad
 0001:00014D74       @PackageUnload
 0001:00000430       @PackageUnload
 0001:0000C760       AddFieldDef
 0001:00013B1C       AddFieldToList
 0001:00000524       ADOConst
 0001:00014C1C       ADODB
 0001:00014D80       adortl
 0001:0000569C       ADOTypeToFieldType
 0002:000002A8       AffectRecordsValues
 0001:000002C0       AllocTlsBuffer
 0001:000068D0       ApplicationHandleException
 0001:00009FA0       AssignField
 0001:0000A01C       AssignParam
 0001:00009EC0       AssignParameter
 0001:0000A2CC       AssignToParam
 0001:0000E998       BufferToVar
 0001:0000776C       CheckForAsyncExecute
 0001:0000F4B4       CheckForFlyAway
 0002:00000030       CommandTypeValues
 0002:00000048       ConnectModeValues
 0002:00000068       ConnectOptionValues
 0001:00005638       CreateADOObject
 0001:00013D90       CreateFields
 0001:00006078       CreateUDLFile
 0001:0000E218       CurrToBuffer
 0002:00000070       CursorLocationValues
 0002:00000078       CursorOptionValues
 0002:000000AC       CursorTypeValues
 0001:00006648       DataLinkDir
 0002:000000C0       DataTypeValues
 0001:0000D460       DesignerDataStored
 0001:0000F794       DoRecordsetDelete
 0002:00000158       EventReasonValues
 0002:00000194       EventStatusValues
 0001:00005BF4       ExecuteOptionsToOrd
 0002:000001A8       ExecuteOptionValues
 0001:0000036C       ExitProcessTLS
 0001:00000344       ExitThreadTLS
 0001:00007D34       ExtractCommandType
 0001:00005C70       ExtractFieldName
 0001:000079AC       ExtractUserID
 0001:00006034       FieldListCheckSum
 0001:00005884       FieldTypeToADOType
 0002:000001B8       FilterGroupValues
 0001:00014BCC       Finalization
 0001:0000081C       Finalization
 0001:0000054C       Finalization
 0001:000004F4       Finalization
 0001:0000043C       Finalization
 0001:00000288       FreeLibrary
 0001:000096AC       GetComponent
 0001:00006790       GetDataLinkFiles
 0001:00005CBC       GetFilterStr
 0001:00008808       GetFromDataFactory
 0001:000088B0       GetFromProperty
 0001:00012F60       GetIdx
 0001:00006180       GetProviderNames
 0001:00005BA0       GetStates
 0001:000002CC       GetTlsSize
 0001:00007A78       GetUserName
 0002:00001020       GlobalMalloc
 0002:00001004       HInstance
 0001:0000CD24       InitBinding
 0001:0000BE84       InitializeConnection
 0001:0000BB2C       InitializeMasterFields
 0001:00000390       InitializeModule
 0001:0000C008       InitializeRecordset
 0001:0000B658       InitParameters
 0001:00000318       InitProcessTLS
 0001:000002D4       InitThreadTLS
 0001:000136B8       InMTSTransaction
 0001:00009A0C       IsLiteral
 0002:000001D4       IsolationLevelValues
 0001:0000A100       LoadFromStreamPersist
 0001:0000A160       LoadFromStrings
 0001:00000290       LocalAlloc
 0001:00000298       LocalFree
 0002:000001F8       LockTypeValues
 0002:0000020C       MarshalOptionValues
 0001:0000084C       Messages
 0002:00000008       Module
 0002:00001000       ModuleIsLib
 0002:00001001       ModuleIsPackage
 0001:000099E4       NameDelimiter
 0002:00000214       ObjectStateValues
 0001:00005B54       OleEnumToOrd
 0001:00005C30       OrdToExecuteOptions
 0002:00000228       ParameterAttributeValues
 0002:00000234       ParameterDirectionValues
 0001:00006524       PromptDataLinkFile
 0001:000063BC       PromptDataSource
 0001:00005F68       PropertyExists
 0002:00000004       PtrToNil
 0002:00000248       RecordStatusValues
 0001:0000E5D4       RefreshBuffers
 0001:00008FB0       RefreshFromADO
 0001:00008CA4       RefreshFromOleDB
 0001:0000052C       RegCloseKey
 0001:00000534       RegOpenKeyEx
 0001:0000053C       RegQueryValueEx
 0002:000002D8       RetCodes
 0002:00000290       SeekOptionValues
 0001:00013950       SetTableFilter
 0001:0000CDB4       SetupBindings
 0002:000002D4       SIsAutoInc
 0001:00005A4C       StringToVarArray
 0001:00009A2C       StripChar
 0001:00009A98       StripLiterals
 0001:0000046C       SysInit
 0001:00014714       TADOBlobStream.Create
 0001:0001487C       TADOBlobStream.Destroy
 0001:00014924       TADOBlobStream.ReadBlobData
 0001:00014AD4       TADOBlobStream.Realloc
 0001:00014BB0       TADOBlobStream.Truncate
 0001:00014BA0       TADOBlobStream.Write
 0001:0000B0F4       TADOCommand.Assign
 0001:0000B924       TADOCommand.AssignCommandText
 0001:0000B17C       TADOCommand.Cancel
 0001:0000B18C       TADOCommand.CheckCommandText
 0001:0000BA1C       TADOCommand.ClearActiveConnection
 0001:0000B34C       TADOCommand.ComponentLoading
 0001:0000BA30       TADOCommand.ConnectionStateChange
 0001:0000AFD8       TADOCommand.Create
 0001:0000B0B4       TADOCommand.Destroy
 0001:0000B368       TADOCommand.Execute
 0001:0000B3A4       TADOCommand.Execute
 0001:0000B380       TADOCommand.Execute
 0001:0000B638       TADOCommand.GetActiveConnection
 0001:0000B9B0       TADOCommand.GetCommandTimeOut
 0001:0000B9D8       TADOCommand.GetCommandType
 0001:0000BAC0       TADOCommand.GetPrepared
 0001:0000BB0C       TADOCommand.GetProperties
 0001:0000BAE8       TADOCommand.GetState
 0001:0000B494       TADOCommand.Initialize
 0001:0000B274       TADOCommand.OpenConnection
 0001:0000BA00       TADOCommand.SetComandType
 0001:0000B988       TADOCommand.SetCommandText
 0001:0000B9C8       TADOCommand.SetCommandTimeOut
 0001:0000BA3C       TADOCommand.SetConnection
 0001:0000B200       TADOCommand.SetConnectionFlag
 0001:0000BA80       TADOCommand.SetConnectionString
 0001:0000BAB0       TADOCommand.SetParameters
 0001:0000BAD8       TADOCommand.SetPrepared
 0001:00006B80       TADOConnection.BeginTrans
 0001:00007544       TADOConnection.BeginTransComplete
 0001:00006BF8       TADOConnection.Cancel
 0001:00006AF8       TADOConnection.CheckActive
 0001:00006D0C       TADOConnection.CheckDisconnect
 0001:00006B18       TADOConnection.CheckInactive
 0001:00006B38       TADOConnection.ClearRefs
 0001:00006BA0       TADOConnection.CommitTrans
 0001:000075C4       TADOConnection.CommitTransComplete
 0001:00007640       TADOConnection.ConnectComplete
 0001:000074C0       TADOConnection.ConnectionPoint
 0001:000068F0       TADOConnection.Create
 0001:00006A10       TADOConnection.Destroy
 0001:000076BC       TADOConnection.Disconnect
 0001:00006C40       TADOConnection.DoConnect
 0001:00006CDC       TADOConnection.DoDisconnect
 0001:00006DF8       TADOConnection.Execute
 0001:00006D68       TADOConnection.Execute
 0001:00007820       TADOConnection.ExecuteComplete
 0001:00008244       TADOConnection.GetADODataSet
 0001:00007E74       TADOConnection.GetAttributes
 0001:00008228       TADOConnection.GetCommand
 0001:0000823C       TADOConnection.GetCommandCount
 0001:00007F18       TADOConnection.GetCommandTimeout
 0001:00007F40       TADOConnection.GetConnected
 0001:00008040       TADOConnection.GetConnectionString
 0001:000080F4       TADOConnection.GetConnectionTimeout
 0001:00008158       TADOConnection.GetCursorLocation
 0001:00008278       TADOConnection.GetDefaultDatabase
 0001:00008350       TADOConnection.GetErrors
 0001:00007084       TADOConnection.GetFieldNames
 0001:00008370       TADOConnection.GetInTransaction
 0001:0000837C       TADOConnection.GetIsolationLevel
 0001:000083F0       TADOConnection.GetMode
 0001:00006F94       TADOConnection.GetProcedureNames
 0001:00008450       TADOConnection.GetProperties
 0001:00008470       TADOConnection.GetProvider
 0001:000085B4       TADOConnection.GetState
 0001:000072F0       TADOConnection.GetTableNames
 0001:000085DC       TADOConnection.GetVersion
 0001:000078B4       TADOConnection.InfoMessage
 0001:00008264       TADOConnection.IsDefaultDatabaseStored
 0001:00008500       TADOConnection.IsProviderStored
 0001:00006AB4       TADOConnection.Loaded
 0001:00006E7C       TADOConnection.Open
 0001:00006EF0       TADOConnection.OpenSchema
 0001:0000819C       TADOConnection.RegisterClient
 0001:00006BCC       TADOConnection.RollbackTrans
 0001:00007930       TADOConnection.RollbackTransComplete
 0001:00007ECC       TADOConnection.SetAttributes
 0001:00007F30       TADOConnection.SetCommandTimeout
 0001:00007F74       TADOConnection.SetConnectionObject
 0001:00008080       TADOConnection.SetConnectionString
 0001:0000810C       TADOConnection.SetConnectionTimeout
 0001:00008138       TADOConnection.SetConnectOptions
 0001:00008180       TADOConnection.SetCursorLocation
 0001:000082D8       TADOConnection.SetDefaultDatabase
 0001:000083C4       TADOConnection.SetIsolationLevel
 0001:000085FC       TADOConnection.SetKeepConnection
 0001:00008418       TADOConnection.SetMode
 0001:00008494       TADOConnection.SetProvider
 0001:000081E8       TADOConnection.UnRegisterClient
 0001:00006C0C       TADOConnection.WaitForConnectComplete
 0001:00007BBC       TADOConnection.WillConnect
 0001:00007D5C       TADOConnection.WillExecute
 0001:00013E98       TADODataSet.CreateDataSet
 0001:00013FBC       TADODataSet.DataEvent
 0001:00014080       TADODataSet.GetIndexNames
 0001:000140A4       TADODataSet.OpenCursor
 0001:00014330       TADODataSet.SetConnection
 0001:0001439C       TADODataSet.SetDataSetField
 0001:00014358       TADODataSet.SetRDSConnection
 0001:000144BC       TADOQuery.Create
 0001:00014538       TADOQuery.Destroy
 0001:00014568       TADOQuery.ExecSQL
 0001:00014640       TADOQuery.GetSQL
 0001:000145CC       TADOQuery.QueryChanged
 0001:00014648       TADOQuery.SetSQL
 0001:00014658       TADOStoredProc.Create
 0001:000146C8       TADOStoredProc.ExecProc
 0001:000143E0       TADOTable.Create
 0001:00014498       TADOTable.GetIndexNames
 0001:00014448       TADOTable.GetReadOnly
 0001:00014470       TADOTable.GetTableDirect
 0001:0001445C       TADOTable.SetReadOnly
 0001:00014484       TADOTable.SetTableDirect
 0001:0000FA0C       TCustomADODataSet.ActivateTextFilter
 0001:0000DA98       TCustomADODataSet.AllocRecordBuffer
 0001:0000D968       TCustomADODataSet.BookmarkValid
 0001:0000F8F8       TCustomADODataSet.CancelBatch
 0001:0000F8F0       TCustomADODataSet.CancelUpdates
 0001:0000C6B0       TCustomADODataSet.CheckActive
 0001:0000C6D4       TCustomADODataSet.CheckFieldCompatibility
 0001:0000DFB8       TCustomADODataSet.ClearCalcFields
 0001:0000D2C4       TCustomADODataSet.Clone
 0001:0000D9D8       TCustomADODataSet.CompareBookmarks
 0001:00011734       TCustomADODataSet.ConnectionPoint
 0001:0000BCB0       TCustomADODataSet.Create
 0001:0000EE00       TCustomADODataSet.CreateBlobStream
 0001:0000D404       TCustomADODataSet.DataEvent
 0001:0000FAAC       TCustomADODataSet.DeactivateFilters
 0001:0000C734       TCustomADODataSet.DefChanged
 0001:0000D4A4       TCustomADODataSet.DefineProperties
 0001:0000F87C       TCustomADODataSet.DeleteRecords
 0001:0000BDAC       TCustomADODataSet.Destroy
 0001:000102BC       TCustomADODataSet.DestroyLookupCursor
 0001:0000D834       TCustomADODataSet.DoOnNewRecord
 0001:00011600       TCustomADODataSet.EnableEvents
 0001:00011C7C       TCustomADODataSet.EndOfRecordset
 0001:00011D00       TCustomADODataSet.FetchComplete
 0001:00011D84       TCustomADODataSet.FetchProgress
 0001:00011854       TCustomADODataSet.FieldChangeComplete
 0001:0000FEDC       TCustomADODataSet.FilterOnBookmarks
 0001:00010028       TCustomADODataSet.FindRecord
 0001:0000DAD4       TCustomADODataSet.FreeRecordBuffer
 0001:0000E05C       TCustomADODataSet.GetActiveRecBuf
 0001:0000E200       TCustomADODataSet.GetBlobFieldData
 0001:0000D924       TCustomADODataSet.GetBookmarkData
 0001:0000D91C       TCustomADODataSet.GetBookmarkFlag
 0001:00011FCC       TCustomADODataSet.GetCacheSize
 0001:0000EF2C       TCustomADODataSet.GetCanModify
 0001:00012028       TCustomADODataSet.GetCommandText
 0001:000120B4       TCustomADODataSet.GetCommandTimeout
 0001:000120CC       TCustomADODataSet.GetCommandType
 0001:0001213C       TCustomADODataSet.GetConnection
 0001:0001221C       TCustomADODataSet.GetConnectionString
 0001:000122AC       TCustomADODataSet.GetCursorLocation
 0001:0001231C       TCustomADODataSet.GetCursorType
 0001:00012388       TCustomADODataSet.GetDataSource
 0001:00013B40       TCustomADODataSet.GetDetailLinkFields
 0001:00012400       TCustomADODataSet.GetExecuteOptions
 0001:0000E208       TCustomADODataSet.GetFieldData
 0001:0000E7C0       TCustomADODataSet.GetFieldData
 0001:0000E614       TCustomADODataSet.GetFieldData
 0001:0000FD38       TCustomADODataSet.GetFilterGroup
 0001:00012B84       TCustomADODataSet.GetIndexField
 0001:00012BBC       TCustomADODataSet.GetIndexFieldCount
 0001:000128B8       TCustomADODataSet.GetIndexFieldNames
 0001:00012DC4       TCustomADODataSet.GetIndexName
 0001:00012420       TCustomADODataSet.GetLockType
 0001:00012484       TCustomADODataSet.GetMarshalOptions
 0001:00012508       TCustomADODataSet.GetMasterFields
 0001:00012590       TCustomADODataSet.GetMaxRecords
 0001:000125E8       TCustomADODataSet.GetParamCheck
 0001:00012600       TCustomADODataSet.GetParameters
 0001:00012620       TCustomADODataSet.GetPrepared
 0001:0001264C       TCustomADODataSet.GetProperties
 0001:00011E3C       TCustomADODataSet.GetRecNo
 0001:0000DE04       TCustomADODataSet.GetRecord
 0001:00011E14       TCustomADODataSet.GetRecordCount
 0001:0001274C       TCustomADODataSet.GetRecordsetState
 0001:0000DA90       TCustomADODataSet.GetRecordSize
 0001:0001278C       TCustomADODataSet.GetRecordStatus
 0001:000127E8       TCustomADODataSet.GetSort
 0001:0000E7E4       TCustomADODataSet.GetStateFieldValue
 0001:0000CF20       TCustomADODataSet.InitOleDBAccess
 0001:0000F208       TCustomADODataSet.InternalAddRecord
 0001:0000F8E8       TCustomADODataSet.InternalCancel
 0001:0000C478       TCustomADODataSet.InternalClose
 0001:0000F874       TCustomADODataSet.InternalDelete
 0001:0000EF58       TCustomADODataSet.InternalEdit
 0001:0000EE3C       TCustomADODataSet.InternalFirst
 0001:0000DB18       TCustomADODataSet.InternalGetRecord
 0001:0000D8D8       TCustomADODataSet.InternalGotoBookmark
 0001:0000D1A8       TCustomADODataSet.InternalHandleException
 0001:0000CB88       TCustomADODataSet.InternalInitFieldDefs
 0001:0000DF44       TCustomADODataSet.InternalInitRecord
 0001:0000F204       TCustomADODataSet.InternalInsert
 0001:0000EEC8       TCustomADODataSet.InternalLast
 0001:0000C3EC       TCustomADODataSet.InternalOpen
 0001:0000F634       TCustomADODataSet.InternalPost
 0001:0000C554       TCustomADODataSet.InternalRefresh
 0001:0000C5A8       TCustomADODataSet.InternalRequery
 0001:00012820       TCustomADODataSet.InternalSetSort
 0001:0000D8F8       TCustomADODataSet.InternalSetToRecord
 0001:0000C720       TCustomADODataSet.IsCursorOpen
 0001:00011F04       TCustomADODataSet.IsSequenced
 0001:0000BE30       TCustomADODataSet.Loaded
 0001:0000D1B0       TCustomADODataSet.LoadFromFile
 0001:00010A44       TCustomADODataSet.Locate
 0001:000102D8       TCustomADODataSet.LocateRecord
 0001:0001096C       TCustomADODataSet.Lookup
 0001:0000D568       TCustomADODataSet.MasterChanged
 0001:0000D5AC       TCustomADODataSet.MasterDisabled
 0001:00011BE4       TCustomADODataSet.MoveComplete
 0001:0000D388       TCustomADODataSet.NextRecordset
 0001:0000C1FC       TCustomADODataSet.OpenCursor
 0001:0000D0A0       TCustomADODataSet.PrepareCursor
 0001:00011FB0       TCustomADODataSet.PropertyChanged
 0001:00013830       TCustomADODataSet.PSEndTransaction
 0001:00013198       TCustomADODataSet.PSExecute
 0001:000131DC       TCustomADODataSet.PSExecuteStatement
 0001:00013ABC       TCustomADODataSet.PSGetAttributes
 0001:0001305C       TCustomADODataSet.PSGetDefaultOrder
 0001:00013AA8       TCustomADODataSet.PSGetIndexDefs
 0001:0001349C       TCustomADODataSet.PSGetKeyFields
 0001:000135D0       TCustomADODataSet.PSGetParams
 0001:000136AC       TCustomADODataSet.PSGetQuoteChar
 0001:0001360C       TCustomADODataSet.PSGetTableName
 0001:00013AC4       TCustomADODataSet.PSGetUpdateException
 0001:00013744       TCustomADODataSet.PSInTransaction
 0001:000138F0       TCustomADODataSet.PSIsSQLBased
 0001:00013B14       TCustomADODataSet.PSIsSQLSupported
 0001:000138F4       TCustomADODataSet.PSReset
 0001:000138FC       TCustomADODataSet.PSSetCommandText
 0001:00013A50       TCustomADODataSet.PSSetParams
 0001:00013770       TCustomADODataSet.PSStartTransaction
 0001:00013B18       TCustomADODataSet.PSUpdateRecord
 0001:0000D504       TCustomADODataSet.ReadDesignerData
 0001:00011988       TCustomADODataSet.RecordChangeComplete
 0001:00011AB8       TCustomADODataSet.RecordsetChangeComplete
 0001:00012BD4       TCustomADODataSet.RefreshIndexFields
 0001:0000D5D0       TCustomADODataSet.RefreshParams
 0001:0000F8BC       TCustomADODataSet.ReleaseLock
 0001:0000C68C       TCustomADODataSet.Requery
 0001:0000D1E4       TCustomADODataSet.SaveToFile
 0001:00010AD8       TCustomADODataSet.Seek
 0001:0000EE28       TCustomADODataSet.SetBlockReadSize
 0001:0000D948       TCustomADODataSet.SetBookmarkData
 0001:0000D920       TCustomADODataSet.SetBookmarkFlag
 0001:00012000       TCustomADODataSet.SetCacheSize
 0001:00012044       TCustomADODataSet.SetCommandText
 0001:000120C0       TCustomADODataSet.SetCommandTimeout
 0001:000120EC       TCustomADODataSet.SetCommandType
 0001:00012150       TCustomADODataSet.SetConnection
 0001:0000BE74       TCustomADODataSet.SetConnectionFlag
 0001:00012238       TCustomADODataSet.SetConnectionString
 0001:000122F0       TCustomADODataSet.SetCursorLocation
 0001:0001235C       TCustomADODataSet.SetCursorType
 0001:00012394       TCustomADODataSet.SetDataSource
 0001:0000D700       TCustomADODataSet.SetDetailFilter
 0001:0001240C       TCustomADODataSet.SetExecuteOptions
 0001:0000EC70       TCustomADODataSet.SetFieldData
 0001:0000E97C       TCustomADODataSet.SetFieldData
 0001:0000FC58       TCustomADODataSet.SetFiltered
 0001:0000FE34       TCustomADODataSet.SetFilterGroup
 0001:0000FB14       TCustomADODataSet.SetFilterOptions
 0001:0000FB78       TCustomADODataSet.SetFilterText
 0001:00012B9C       TCustomADODataSet.SetIndexField
 0001:00012A48       TCustomADODataSet.SetIndexFieldNames
 0001:00012E88       TCustomADODataSet.SetIndexName
 0001:00012460       TCustomADODataSet.SetLockType
 0001:000124C8       TCustomADODataSet.SetMarshalOptions
 0001:00012524       TCustomADODataSet.SetMasterFields
 0001:000125C4       TCustomADODataSet.SetMaxRecords
 0001:000125F4       TCustomADODataSet.SetParamCheck
 0001:0001260C       TCustomADODataSet.SetParameters
 0001:0000D654       TCustomADODataSet.SetParamsFromCursor
 0001:00012638       TCustomADODataSet.SetPrepared
 0001:00011EB0       TCustomADODataSet.SetRecNo
 0001:00012684       TCustomADODataSet.SetRecordset
 0001:00012880       TCustomADODataSet.SetSort
 0001:00011F50       TCustomADODataSet.Supports
 0001:0000F9C0       TCustomADODataSet.UpdateBatch
 0001:00010BE8       TCustomADODataSet.UpdateIndexDefs
 0001:0000E108       TCustomADODataSet.UpdateRecordSetPosition
 0001:00012F30       TCustomADODataSet.UpdateStatus
 0001:000117BC       TCustomADODataSet.WillChangeField
 0001:000118F0       TCustomADODataSet.WillChangeRecord
 0001:00011A24       TCustomADODataSet.WillChangeRecordset
 0001:00011B50       TCustomADODataSet.WillMove
 0001:0000D558       TCustomADODataSet.WriteDesignerData
 0001:000002A0       TlsAlloc
 0002:0000100C       tlsBuffer
 0001:000002A8       TlsFree
 0001:000002B0       TlsGetValue
 0002:00000000       TlsIndex
 0002:BF8EA000       TlsLast
 0002:00000020       TlsProc
 0001:000002B8       TlsSetValue
 0001:00009E40       TParameter.AppendChunk
 0001:0000A1D8       TParameter.Assign
 0001:0000A36C       TParameter.AssignTo
 0001:0000A738       TParameter.GetAttributes
 0001:0000A868       TParameter.GetDataType
 0001:0000A938       TParameter.GetDisplayName
 0001:0000A988       TParameter.GetName
 0001:0000AA44       TParameter.GetNumericScale
 0001:0000AB04       TParameter.GetParameter
 0001:0000AB74       TParameter.GetParameterDirection
 0001:0000AC4C       TParameter.GetParameters
 0001:0000AC50       TParameter.GetPrecision
 0001:0000AD10       TParameter.GetProperties
 0001:0000AD6C       TParameter.GetSize
 0001:0000AE2C       TParameter.GetValue
 0001:0000A5D8       TParameter.IsEqual
 0001:0000A400       TParameter.LoadFromFile
 0001:0000A45C       TParameter.LoadFromStream
 0001:0000A7D0       TParameter.SetAttributes
 0001:0000A8D0       TParameter.SetDataType
 0001:0000A9E4       TParameter.SetName
 0001:0000AAA4       TParameter.SetNumericScale
 0001:0000ABE4       TParameter.SetParameterDirection
 0001:0000ACB0       TParameter.SetPrecision
 0001:0000ADCC       TParameter.SetSize
 0001:0000AE88       TParameter.SetValue
 0001:0000929C       TParameters.AddParameter
 0001:000092B4       TParameters.AppendParameters
 0001:00009508       TParameters.AssignValues
 0001:00009440       TParameters.CreateParameter
 0001:00008B78       TParameters.Create_Parameter
 0001:00009600       TParameters.FindParam
 0001:00009CF4       TParameters.GetAttr
 0001:00009D28       TParameters.GetAttrCount
 0001:00009DDC       TParameters.GetCommand
 0001:00009DFC       TParameters.GetItem
 0001:00009D30       TParameters.GetItemAttr
 0001:00009E18       TParameters.GetParamCollection
 0001:00009768       TParameters.GetParamList
 0001:000097E4       TParameters.GetParamValue
 0001:00009218       TParameters.InternalRefresh
 0001:0000959C       TParameters.IsEqual
 0001:000096E8       TParameters.ParamByName
 0001:00009B14       TParameters.ParseSQL
 0001:00008C2C       TParameters.Refresh
 0001:00009E10       TParameters.SetItem
 0001:000098F8       TParameters.SetParamValue
 0001:00009294       TParameters.Update
 0001:000086D0       TRDSConnection.CheckInactive
 0001:000086F0       TRDSConnection.ClearRefs
 0001:00008618       TRDSConnection.Create
 0001:0000868C       TRDSConnection.Destroy
 0001:00008734       TRDSConnection.DoConnect
 0001:000087EC       TRDSConnection.DoDisconnect
 0001:000087F8       TRDSConnection.GetConnected
 0001:000089F8       TRDSConnection.GetRecordset
 0001:00008AAC       TRDSConnection.SetComputerName
 0001:00008AC8       TRDSConnection.SetServerName
 0001:0000039C       UninitializeModule
 0001:0000F230       UpdateData
 0002:000002C0       ValidDirectionValues
 0001:00014A00       VarAlloc
 0001:00005B04       VarDataSize
 0001:0000E260       VarToBuffer
 0001:00000544       WideCharToMultiByte
 0001:0000057C       Windows
 0002:000002B8       XactAttributeValues


  Address         Publics by Value

 0002:BF8EA000       TlsLast
 0001:00000288       FreeLibrary
 0001:00000290       LocalAlloc
 0001:00000298       LocalFree
 0001:000002A0       TlsAlloc
 0001:000002A8       TlsFree
 0001:000002B0       TlsGetValue
 0001:000002B8       TlsSetValue
 0001:000002C0       AllocTlsBuffer
 0001:000002CC       GetTlsSize
 0001:000002D4       InitThreadTLS
 0001:00000318       InitProcessTLS
 0001:00000344       ExitThreadTLS
 0001:0000036C       ExitProcessTLS
 0001:00000390       InitializeModule
 0001:0000039C       UninitializeModule
 0001:000003C0       @InitPkg
 0001:00000424       @PackageLoad
 0001:00000430       @PackageUnload
 0001:0000043C       Finalization
 0001:0000046C       SysInit
 0001:000004F4       Finalization
 0001:00000524       ADOConst
 0001:0000052C       RegCloseKey
 0001:00000534       RegOpenKeyEx
 0001:0000053C       RegQueryValueEx
 0001:00000544       WideCharToMultiByte
 0001:0000054C       Finalization
 0001:0000057C       Windows
 0001:0000081C       Finalization
 0001:0000084C       Messages
 0001:00005638       CreateADOObject
 0001:0000569C       ADOTypeToFieldType
 0001:00005884       FieldTypeToADOType
 0001:00005A4C       StringToVarArray
 0001:00005B04       VarDataSize
 0001:00005B54       OleEnumToOrd
 0001:00005BA0       GetStates
 0001:00005BF4       ExecuteOptionsToOrd
 0001:00005C30       OrdToExecuteOptions
 0001:00005C70       ExtractFieldName
 0001:00005CBC       GetFilterStr
 0001:00005F68       PropertyExists
 0001:00006034       FieldListCheckSum
 0001:00006078       CreateUDLFile
 0001:00006180       GetProviderNames
 0001:000063BC       PromptDataSource
 0001:00006524       PromptDataLinkFile
 0001:00006648       DataLinkDir
 0001:00006790       GetDataLinkFiles
 0001:000068D0       ApplicationHandleException
 0001:000068F0       TADOConnection.Create
 0001:00006A10       TADOConnection.Destroy
 0001:00006AB4       TADOConnection.Loaded
 0001:00006AF8       TADOConnection.CheckActive
 0001:00006B18       TADOConnection.CheckInactive
 0001:00006B38       TADOConnection.ClearRefs
 0001:00006B80       TADOConnection.BeginTrans
 0001:00006BA0       TADOConnection.CommitTrans
 0001:00006BCC       TADOConnection.RollbackTrans
 0001:00006BF8       TADOConnection.Cancel
 0001:00006C0C       TADOConnection.WaitForConnectComplete
 0001:00006C40       TADOConnection.DoConnect
 0001:00006CDC       TADOConnection.DoDisconnect
 0001:00006D0C       TADOConnection.CheckDisconnect
 0001:00006D68       TADOConnection.Execute
 0001:00006DF8       TADOConnection.Execute
 0001:00006E7C       TADOConnection.Open
 0001:00006EF0       TADOConnection.OpenSchema
 0001:00006F94       TADOConnection.GetProcedureNames
 0001:00007084       TADOConnection.GetFieldNames
 0001:000072F0       TADOConnection.GetTableNames
 0001:000074C0       TADOConnection.ConnectionPoint
 0001:00007544       TADOConnection.BeginTransComplete
 0001:000075C4       TADOConnection.CommitTransComplete
 0001:00007640       TADOConnection.ConnectComplete
 0001:000076BC       TADOConnection.Disconnect
 0001:0000776C       CheckForAsyncExecute
 0001:00007820       TADOConnection.ExecuteComplete
 0001:000078B4       TADOConnection.InfoMessage
 0001:00007930       TADOConnection.RollbackTransComplete
 0001:000079AC       ExtractUserID
 0001:00007A78       GetUserName
 0001:00007BBC       TADOConnection.WillConnect
 0001:00007D34       ExtractCommandType
 0001:00007D5C       TADOConnection.WillExecute
 0001:00007E74       TADOConnection.GetAttributes
 0001:00007ECC       TADOConnection.SetAttributes
 0001:00007F18       TADOConnection.GetCommandTimeout
 0001:00007F30       TADOConnection.SetCommandTimeout
 0001:00007F40       TADOConnection.GetConnected
 0001:00007F74       TADOConnection.SetConnectionObject
 0001:00008040       TADOConnection.GetConnectionString
 0001:00008080       TADOConnection.SetConnectionString
 0001:000080F4       TADOConnection.GetConnectionTimeout
 0001:0000810C       TADOConnection.SetConnectionTimeout
 0001:00008138       TADOConnection.SetConnectOptions
 0001:00008158       TADOConnection.GetCursorLocation
 0001:00008180       TADOConnection.SetCursorLocation
 0001:0000819C       TADOConnection.RegisterClient
 0001:000081E8       TADOConnection.UnRegisterClient
 0001:00008228       TADOConnection.GetCommand
 0001:0000823C       TADOConnection.GetCommandCount
 0001:00008244       TADOConnection.GetADODataSet
 0001:00008264       TADOConnection.IsDefaultDatabaseStored
 0001:00008278       TADOConnection.GetDefaultDatabase
 0001:000082D8       TADOConnection.SetDefaultDatabase
 0001:00008350       TADOConnection.GetErrors
 0001:00008370       TADOConnection.GetInTransaction
 0001:0000837C       TADOConnection.GetIsolationLevel
 0001:000083C4       TADOConnection.SetIsolationLevel
 0001:000083F0       TADOConnection.GetMode
 0001:00008418       TADOConnection.SetMode
 0001:00008450       TADOConnection.GetProperties
 0001:00008470       TADOConnection.GetProvider
 0001:00008494       TADOConnection.SetProvider
 0001:00008500       TADOConnection.IsProviderStored
 0001:000085B4       TADOConnection.GetState
 0001:000085DC       TADOConnection.GetVersion
 0001:000085FC       TADOConnection.SetKeepConnection
 0001:00008618       TRDSConnection.Create
 0001:0000868C       TRDSConnection.Destroy
 0001:000086D0       TRDSConnection.CheckInactive
 0001:000086F0       TRDSConnection.ClearRefs
 0001:00008734       TRDSConnection.DoConnect
 0001:000087EC       TRDSConnection.DoDisconnect
 0001:000087F8       TRDSConnection.GetConnected
 0001:00008808       GetFromDataFactory
 0001:000088B0       GetFromProperty
 0001:000089F8       TRDSConnection.GetRecordset
 0001:00008AAC       TRDSConnection.SetComputerName
 0001:00008AC8       TRDSConnection.SetServerName
 0001:00008B78       TParameters.Create_Parameter
 0001:00008C2C       TParameters.Refresh
 0001:00008CA4       RefreshFromOleDB
 0001:00008FB0       RefreshFromADO
 0001:00009218       TParameters.InternalRefresh
 0001:00009294       TParameters.Update
 0001:0000929C       TParameters.AddParameter
 0001:000092B4       TParameters.AppendParameters
 0001:00009440       TParameters.CreateParameter
 0001:00009508       TParameters.AssignValues
 0001:0000959C       TParameters.IsEqual
 0001:00009600       TParameters.FindParam
 0001:000096AC       GetComponent
 0001:000096E8       TParameters.ParamByName
 0001:00009768       TParameters.GetParamList
 0001:000097E4       TParameters.GetParamValue
 0001:000098F8       TParameters.SetParamValue
 0001:000099E4       NameDelimiter
 0001:00009A0C       IsLiteral
 0001:00009A2C       StripChar
 0001:00009A98       StripLiterals
 0001:00009B14       TParameters.ParseSQL
 0001:00009CF4       TParameters.GetAttr
 0001:00009D28       TParameters.GetAttrCount
 0001:00009D30       TParameters.GetItemAttr
 0001:00009DDC       TParameters.GetCommand
 0001:00009DFC       TParameters.GetItem
 0001:00009E10       TParameters.SetItem
 0001:00009E18       TParameters.GetParamCollection
 0001:00009E40       TParameter.AppendChunk
 0001:00009EC0       AssignParameter
 0001:00009FA0       AssignField
 0001:0000A01C       AssignParam
 0001:0000A100       LoadFromStreamPersist
 0001:0000A160       LoadFromStrings
 0001:0000A1D8       TParameter.Assign
 0001:0000A2CC       AssignToParam
 0001:0000A36C       TParameter.AssignTo
 0001:0000A400       TParameter.LoadFromFile
 0001:0000A45C       TParameter.LoadFromStream
 0001:0000A5D8       TParameter.IsEqual
 0001:0000A738       TParameter.GetAttributes
 0001:0000A7D0       TParameter.SetAttributes
 0001:0000A868       TParameter.GetDataType
 0001:0000A8D0       TParameter.SetDataType
 0001:0000A938       TParameter.GetDisplayName
 0001:0000A988       TParameter.GetName
 0001:0000A9E4       TParameter.SetName
 0001:0000AA44       TParameter.GetNumericScale
 0001:0000AAA4       TParameter.SetNumericScale
 0001:0000AB04       TParameter.GetParameter
 0001:0000AB74       TParameter.GetParameterDirection
 0001:0000ABE4       TParameter.SetParameterDirection
 0001:0000AC4C       TParameter.GetParameters
 0001:0000AC50       TParameter.GetPrecision
 0001:0000ACB0       TParameter.SetPrecision
 0001:0000AD10       TParameter.GetProperties
 0001:0000AD6C       TParameter.GetSize
 0001:0000ADCC       TParameter.SetSize
 0001:0000AE2C       TParameter.GetValue
 0001:0000AE88       TParameter.SetValue
 0001:0000AFD8       TADOCommand.Create
 0001:0000B0B4       TADOCommand.Destroy
 0001:0000B0F4       TADOCommand.Assign
 0001:0000B17C       TADOCommand.Cancel
 0001:0000B18C       TADOCommand.CheckCommandText
 0001:0000B200       TADOCommand.SetConnectionFlag
 0001:0000B274       TADOCommand.OpenConnection
 0001:0000B34C       TADOCommand.ComponentLoading
 0001:0000B368       TADOCommand.Execute
 0001:0000B380       TADOCommand.Execute
 0001:0000B3A4       TADOCommand.Execute
 0001:0000B494       TADOCommand.Initialize
 0001:0000B638       TADOCommand.GetActiveConnection
 0001:0000B658       InitParameters
 0001:0000B924       TADOCommand.AssignCommandText
 0001:0000B988       TADOCommand.SetCommandText
 0001:0000B9B0       TADOCommand.GetCommandTimeOut
 0001:0000B9C8       TADOCommand.SetCommandTimeOut
 0001:0000B9D8       TADOCommand.GetCommandType
 0001:0000BA00       TADOCommand.SetComandType
 0001:0000BA1C       TADOCommand.ClearActiveConnection
 0001:0000BA30       TADOCommand.ConnectionStateChange
 0001:0000BA3C       TADOCommand.SetConnection
 0001:0000BA80       TADOCommand.SetConnectionString
 0001:0000BAB0       TADOCommand.SetParameters
 0001:0000BAC0       TADOCommand.GetPrepared
 0001:0000BAD8       TADOCommand.SetPrepared
 0001:0000BAE8       TADOCommand.GetState
 0001:0000BB0C       TADOCommand.GetProperties
 0001:0000BB2C       InitializeMasterFields
 0001:0000BCB0       TCustomADODataSet.Create
 0001:0000BDAC       TCustomADODataSet.Destroy
 0001:0000BE30       TCustomADODataSet.Loaded
 0001:0000BE74       TCustomADODataSet.SetConnectionFlag
 0001:0000BE84       InitializeConnection
 0001:0000C008       InitializeRecordset
 0001:0000C1FC       TCustomADODataSet.OpenCursor
 0001:0000C3EC       TCustomADODataSet.InternalOpen
 0001:0000C478       TCustomADODataSet.InternalClose
 0001:0000C554       TCustomADODataSet.InternalRefresh
 0001:0000C5A8       TCustomADODataSet.InternalRequery
 0001:0000C68C       TCustomADODataSet.Requery
 0001:0000C6B0       TCustomADODataSet.CheckActive
 0001:0000C6D4       TCustomADODataSet.CheckFieldCompatibility
 0001:0000C720       TCustomADODataSet.IsCursorOpen
 0001:0000C734       TCustomADODataSet.DefChanged
 0001:0000C760       AddFieldDef
 0001:0000CB88       TCustomADODataSet.InternalInitFieldDefs
 0001:0000CD24       InitBinding
 0001:0000CDB4       SetupBindings
 0001:0000CF20       TCustomADODataSet.InitOleDBAccess
 0001:0000D0A0       TCustomADODataSet.PrepareCursor
 0001:0000D1A8       TCustomADODataSet.InternalHandleException
 0001:0000D1B0       TCustomADODataSet.LoadFromFile
 0001:0000D1E4       TCustomADODataSet.SaveToFile
 0001:0000D2C4       TCustomADODataSet.Clone
 0001:0000D388       TCustomADODataSet.NextRecordset
 0001:0000D404       TCustomADODataSet.DataEvent
 0001:0000D460       DesignerDataStored
 0001:0000D4A4       TCustomADODataSet.DefineProperties
 0001:0000D504       TCustomADODataSet.ReadDesignerData
 0001:0000D558       TCustomADODataSet.WriteDesignerData
 0001:0000D568       TCustomADODataSet.MasterChanged
 0001:0000D5AC       TCustomADODataSet.MasterDisabled
 0001:0000D5D0       TCustomADODataSet.RefreshParams
 0001:0000D654       TCustomADODataSet.SetParamsFromCursor
 0001:0000D700       TCustomADODataSet.SetDetailFilter
 0001:0000D834       TCustomADODataSet.DoOnNewRecord
 0001:0000D8D8       TCustomADODataSet.InternalGotoBookmark
 0001:0000D8F8       TCustomADODataSet.InternalSetToRecord
 0001:0000D91C       TCustomADODataSet.GetBookmarkFlag
 0001:0000D920       TCustomADODataSet.SetBookmarkFlag
 0001:0000D924       TCustomADODataSet.GetBookmarkData
 0001:0000D948       TCustomADODataSet.SetBookmarkData
 0001:0000D968       TCustomADODataSet.BookmarkValid
 0001:0000D9D8       TCustomADODataSet.CompareBookmarks
 0001:0000DA90       TCustomADODataSet.GetRecordSize
 0001:0000DA98       TCustomADODataSet.AllocRecordBuffer
 0001:0000DAD4       TCustomADODataSet.FreeRecordBuffer
 0001:0000DB18       TCustomADODataSet.InternalGetRecord
 0001:0000DE04       TCustomADODataSet.GetRecord
 0001:0000DF44       TCustomADODataSet.InternalInitRecord
 0001:0000DFB8       TCustomADODataSet.ClearCalcFields
 0001:0000E05C       TCustomADODataSet.GetActiveRecBuf
 0001:0000E108       TCustomADODataSet.UpdateRecordSetPosition
 0001:0000E200       TCustomADODataSet.GetBlobFieldData
 0001:0000E208       TCustomADODataSet.GetFieldData
 0001:0000E218       CurrToBuffer
 0001:0000E260       VarToBuffer
 0001:0000E5D4       RefreshBuffers
 0001:0000E614       TCustomADODataSet.GetFieldData
 0001:0000E7C0       TCustomADODataSet.GetFieldData
 0001:0000E7E4       TCustomADODataSet.GetStateFieldValue
 0001:0000E97C       TCustomADODataSet.SetFieldData
 0001:0000E998       BufferToVar
 0001:0000EC70       TCustomADODataSet.SetFieldData
 0001:0000EE00       TCustomADODataSet.CreateBlobStream
 0001:0000EE28       TCustomADODataSet.SetBlockReadSize
 0001:0000EE3C       TCustomADODataSet.InternalFirst
 0001:0000EEC8       TCustomADODataSet.InternalLast
 0001:0000EF2C       TCustomADODataSet.GetCanModify
 0001:0000EF58       TCustomADODataSet.InternalEdit
 0001:0000F204       TCustomADODataSet.InternalInsert
 0001:0000F208       TCustomADODataSet.InternalAddRecord
 0001:0000F230       UpdateData
 0001:0000F4B4       CheckForFlyAway
 0001:0000F634       TCustomADODataSet.InternalPost
 0001:0000F794       DoRecordsetDelete
 0001:0000F874       TCustomADODataSet.InternalDelete
 0001:0000F87C       TCustomADODataSet.DeleteRecords
 0001:0000F8BC       TCustomADODataSet.ReleaseLock
 0001:0000F8E8       TCustomADODataSet.InternalCancel
 0001:0000F8F0       TCustomADODataSet.CancelUpdates
 0001:0000F8F8       TCustomADODataSet.CancelBatch
 0001:0000F9C0       TCustomADODataSet.UpdateBatch
 0001:0000FA0C       TCustomADODataSet.ActivateTextFilter
 0001:0000FAAC       TCustomADODataSet.DeactivateFilters
 0001:0000FB14       TCustomADODataSet.SetFilterOptions
 0001:0000FB78       TCustomADODataSet.SetFilterText
 0001:0000FC58       TCustomADODataSet.SetFiltered
 0001:0000FD38       TCustomADODataSet.GetFilterGroup
 0001:0000FE34       TCustomADODataSet.SetFilterGroup
 0001:0000FEDC       TCustomADODataSet.FilterOnBookmarks
 0001:00010028       TCustomADODataSet.FindRecord
 0001:000102BC       TCustomADODataSet.DestroyLookupCursor
 0001:000102D8       TCustomADODataSet.LocateRecord
 0001:0001096C       TCustomADODataSet.Lookup
 0001:00010A44       TCustomADODataSet.Locate
 0001:00010AD8       TCustomADODataSet.Seek
 0001:00010BE8       TCustomADODataSet.UpdateIndexDefs
 0001:00011600       TCustomADODataSet.EnableEvents
 0001:00011734       TCustomADODataSet.ConnectionPoint
 0001:000117BC       TCustomADODataSet.WillChangeField
 0001:00011854       TCustomADODataSet.FieldChangeComplete
 0001:000118F0       TCustomADODataSet.WillChangeRecord
 0001:00011988       TCustomADODataSet.RecordChangeComplete
 0001:00011A24       TCustomADODataSet.WillChangeRecordset
 0001:00011AB8       TCustomADODataSet.RecordsetChangeComplete
 0001:00011B50       TCustomADODataSet.WillMove
 0001:00011BE4       TCustomADODataSet.MoveComplete
 0001:00011C7C       TCustomADODataSet.EndOfRecordset
 0001:00011D00       TCustomADODataSet.FetchComplete
 0001:00011D84       TCustomADODataSet.FetchProgress
 0001:00011E14       TCustomADODataSet.GetRecordCount
 0001:00011E3C       TCustomADODataSet.GetRecNo
 0001:00011EB0       TCustomADODataSet.SetRecNo
 0001:00011F04       TCustomADODataSet.IsSequenced
 0001:00011F50       TCustomADODataSet.Supports
 0001:00011FB0       TCustomADODataSet.PropertyChanged
 0001:00011FCC       TCustomADODataSet.GetCacheSize
 0001:00012000       TCustomADODataSet.SetCacheSize
 0001:00012028       TCustomADODataSet.GetCommandText
 0001:00012044       TCustomADODataSet.SetCommandText
 0001:000120B4       TCustomADODataSet.GetCommandTimeout
 0001:000120C0       TCustomADODataSet.SetCommandTimeout
 0001:000120CC       TCustomADODataSet.GetCommandType
 0001:000120EC       TCustomADODataSet.SetCommandType
 0001:0001213C       TCustomADODataSet.GetConnection
 0001:00012150       TCustomADODataSet.SetConnection
 0001:0001221C       TCustomADODataSet.GetConnectionString
 0001:00012238       TCustomADODataSet.SetConnectionString
 0001:000122AC       TCustomADODataSet.GetCursorLocation
 0001:000122F0       TCustomADODataSet.SetCursorLocation
 0001:0001231C       TCustomADODataSet.GetCursorType
 0001:0001235C       TCustomADODataSet.SetCursorType
 0001:00012388       TCustomADODataSet.GetDataSource
 0001:00012394       TCustomADODataSet.SetDataSource
 0001:00012400       TCustomADODataSet.GetExecuteOptions
 0001:0001240C       TCustomADODataSet.SetExecuteOptions
 0001:00012420       TCustomADODataSet.GetLockType
 0001:00012460       TCustomADODataSet.SetLockType
 0001:00012484       TCustomADODataSet.GetMarshalOptions
 0001:000124C8       TCustomADODataSet.SetMarshalOptions
 0001:00012508       TCustomADODataSet.GetMasterFields
 0001:00012524       TCustomADODataSet.SetMasterFields
 0001:00012590       TCustomADODataSet.GetMaxRecords
 0001:000125C4       TCustomADODataSet.SetMaxRecords
 0001:000125E8       TCustomADODataSet.GetParamCheck
 0001:000125F4       TCustomADODataSet.SetParamCheck
 0001:00012600       TCustomADODataSet.GetParameters
 0001:0001260C       TCustomADODataSet.SetParameters
 0001:00012620       TCustomADODataSet.GetPrepared
 0001:00012638       TCustomADODataSet.SetPrepared
 0001:0001264C       TCustomADODataSet.GetProperties
 0001:00012684       TCustomADODataSet.SetRecordset
 0001:0001274C       TCustomADODataSet.GetRecordsetState
 0001:0001278C       TCustomADODataSet.GetRecordStatus
 0001:000127E8       TCustomADODataSet.GetSort
 0001:00012820       TCustomADODataSet.InternalSetSort
 0001:00012880       TCustomADODataSet.SetSort
 0001:000128B8       TCustomADODataSet.GetIndexFieldNames
 0001:00012A48       TCustomADODataSet.SetIndexFieldNames
 0001:00012B84       TCustomADODataSet.GetIndexField
 0001:00012B9C       TCustomADODataSet.SetIndexField
 0001:00012BBC       TCustomADODataSet.GetIndexFieldCount
 0001:00012BD4       TCustomADODataSet.RefreshIndexFields
 0001:00012DC4       TCustomADODataSet.GetIndexName
 0001:00012E88       TCustomADODataSet.SetIndexName
 0001:00012F30       TCustomADODataSet.UpdateStatus
 0001:00012F60       GetIdx
 0001:0001305C       TCustomADODataSet.PSGetDefaultOrder
 0001:00013198       TCustomADODataSet.PSExecute
 0001:000131DC       TCustomADODataSet.PSExecuteStatement
 0001:0001349C       TCustomADODataSet.PSGetKeyFields
 0001:000135D0       TCustomADODataSet.PSGetParams
 0001:0001360C       TCustomADODataSet.PSGetTableName
 0001:000136AC       TCustomADODataSet.PSGetQuoteChar
 0001:000136B8       InMTSTransaction
 0001:00013744       TCustomADODataSet.PSInTransaction
 0001:00013770       TCustomADODataSet.PSStartTransaction
 0001:00013830       TCustomADODataSet.PSEndTransaction
 0001:000138F0       TCustomADODataSet.PSIsSQLBased
 0001:000138F4       TCustomADODataSet.PSReset
 0001:000138FC       TCustomADODataSet.PSSetCommandText
 0001:00013950       SetTableFilter
 0001:00013A50       TCustomADODataSet.PSSetParams
 0001:00013AA8       TCustomADODataSet.PSGetIndexDefs
 0001:00013ABC       TCustomADODataSet.PSGetAttributes
 0001:00013AC4       TCustomADODataSet.PSGetUpdateException
 0001:00013B14       TCustomADODataSet.PSIsSQLSupported
 0001:00013B18       TCustomADODataSet.PSUpdateRecord
 0001:00013B1C       AddFieldToList
 0001:00013B40       TCustomADODataSet.GetDetailLinkFields
 0001:00013D90       CreateFields
 0001:00013E98       TADODataSet.CreateDataSet
 0001:00013FBC       TADODataSet.DataEvent
 0001:00014080       TADODataSet.GetIndexNames
 0001:000140A4       TADODataSet.OpenCursor
 0001:00014330       TADODataSet.SetConnection
 0001:00014358       TADODataSet.SetRDSConnection
 0001:0001439C       TADODataSet.SetDataSetField
 0001:000143E0       TADOTable.Create
 0001:00014448       TADOTable.GetReadOnly
 0001:0001445C       TADOTable.SetReadOnly
 0001:00014470       TADOTable.GetTableDirect
 0001:00014484       TADOTable.SetTableDirect
 0001:00014498       TADOTable.GetIndexNames
 0001:000144BC       TADOQuery.Create
 0001:00014538       TADOQuery.Destroy
 0001:00014568       TADOQuery.ExecSQL
 0001:000145CC       TADOQuery.QueryChanged
 0001:00014640       TADOQuery.GetSQL
 0001:00014648       TADOQuery.SetSQL
 0001:00014658       TADOStoredProc.Create
 0001:000146C8       TADOStoredProc.ExecProc
 0001:00014714       TADOBlobStream.Create
 0001:0001487C       TADOBlobStream.Destroy
 0001:00014924       TADOBlobStream.ReadBlobData
 0001:00014A00       VarAlloc
 0001:00014AD4       TADOBlobStream.Realloc
 0001:00014BA0       TADOBlobStream.Write
 0001:00014BB0       TADOBlobStream.Truncate
 0001:00014BCC       Finalization
 0001:00014C1C       ADODB
 0001:00014D60       @GetPackageInfoTable
 0001:00014D68       @PackageLoad
 0001:00014D74       @PackageUnload
 0001:00014D80       adortl
 0002:00000000       TlsIndex
 0002:00000004       PtrToNil
 0002:00000008       Module
 0002:00000020       TlsProc
 0002:00000030       CommandTypeValues
 0002:00000048       ConnectModeValues
 0002:00000068       ConnectOptionValues
 0002:00000070       CursorLocationValues
 0002:00000078       CursorOptionValues
 0002:000000AC       CursorTypeValues
 0002:000000C0       DataTypeValues
 0002:00000158       EventReasonValues
 0002:00000194       EventStatusValues
 0002:000001A8       ExecuteOptionValues
 0002:000001B8       FilterGroupValues
 0002:000001D4       IsolationLevelValues
 0002:000001F8       LockTypeValues
 0002:0000020C       MarshalOptionValues
 0002:00000214       ObjectStateValues
 0002:00000228       ParameterAttributeValues
 0002:00000234       ParameterDirectionValues
 0002:00000248       RecordStatusValues
 0002:00000290       SeekOptionValues
 0002:000002A8       AffectRecordsValues
 0002:000002B8       XactAttributeValues
 0002:000002C0       ValidDirectionValues
 0002:000002D4       SIsAutoInc
 0002:000002D8       RetCodes
 0002:00001000       ModuleIsLib
 0002:00001001       ModuleIsPackage
 0002:00001004       HInstance
 0002:00001008       .1
 0002:0000100C       tlsBuffer
 0002:00001010       .1
 0002:00001014       .3
 0002:00001018       .1
 0002:0000101C       .31
 0002:00001020       GlobalMalloc


Bound resource files

adortl.res
C:\DOCUME~1\~KOKOP~1\LOCALS~1\Temp\dtf271B.tmp


Program entry point at 0001:00014D80
