
 Start         Length     Name                   Class
 0001:00000000 00019CD8H .text                   CODE
 0002:00000000 00001DF0H .data                   DATA
 0002:00001DF0 0000004DH .bss                    BSS


Detailed map of segments

 0001:00000000 000000D6 C=CODE     S=.text    G=(none)   M=System   ACBP=A9
 0001:000000D8 000001EC C=CODE     S=.text    G=(none)   M=SysInit  ACBP=A9
 0001:000002C4 00000038 C=CODE     S=.text    G=(none)   M=Windows  ACBP=A9
 0001:000002FC 0000000E C=CODE     S=.text    G=(none)   M=Types    ACBP=A9
 0001:0000030C 0000000E C=CODE     S=.text    G=(none)   M=ActiveX  ACBP=A9
 0001:0000031C 00000038 C=CODE     S=.text    G=(none)   M=Messages ACBP=A9
 0001:00000354 00000066 C=CODE     S=.text    G=(none)   M=Classes  ACBP=A9
 0001:000003BC 0000000E C=CODE     S=.text    G=(none)   M=TypInfo  ACBP=A9
 0001:000003CC 0000000E C=CODE     S=.text    G=(none)   M=SysUtils ACBP=A9
 0001:000003DC 0000000E C=CODE     S=.text    G=(none)   M=SysConst ACBP=A9
 0001:000003EC 00000036 C=CODE     S=.text    G=(none)   M=Variants ACBP=A9
 0001:00000424 0000000E C=CODE     S=.text    G=(none)   M=VarUtils ACBP=A9
 0001:00000434 0000000E C=CODE     S=.text    G=(none)   M=RTLConsts ACBP=A9
 0001:00000444 0000000E C=CODE     S=.text    G=(none)   M=Graphics ACBP=A9
 0001:00000454 0000000E C=CODE     S=.text    G=(none)   M=Consts   ACBP=A9
 0001:00000464 0000004E C=CODE     S=.text    G=(none)   M=OleServer ACBP=A9
 0001:000004B4 0000001E C=CODE     S=.text    G=(none)   M=ComObj   ACBP=A9
 0001:000004D4 0000000E C=CODE     S=.text    G=(none)   M=ComConst ACBP=A9
 0001:000004E4 0000018E C=CODE     S=.text    G=(none)   M=Controls ACBP=A9
 0001:00000674 0000000E C=CODE     S=.text    G=(none)   M=ActnList ACBP=A9
 0001:00000684 0000000E C=CODE     S=.text    G=(none)   M=Contnrs  ACBP=A9
 0001:00000694 0000000E C=CODE     S=.text    G=(none)   M=Math     ACBP=A9
 0001:000006A4 0000000E C=CODE     S=.text    G=(none)   M=ImgList  ACBP=A9
 0001:000006B4 00000038 C=CODE     S=.text    G=(none)   M=CommCtrl ACBP=A9
 0001:000006EC 0000000E C=CODE     S=.text    G=(none)   M=Forms    ACBP=A9
 0001:000006FC 0000000E C=CODE     S=.text    G=(none)   M=HelpIntfs ACBP=A9
 0001:0000070C 0000000E C=CODE     S=.text    G=(none)   M=MultiMon ACBP=A9
 0001:0000071C 00000038 C=CODE     S=.text    G=(none)   M=Imm      ACBP=A9
 0001:00000754 0000000E C=CODE     S=.text    G=(none)   M=Menus    ACBP=A9
 0001:00000764 0000000E C=CODE     S=.text    G=(none)   M=Themes   ACBP=A9
 0001:00000774 0000000E C=CODE     S=.text    G=(none)   M=UxTheme  ACBP=A9
 0001:00000784 0000000E C=CODE     S=.text    G=(none)   M=SyncObjs ACBP=A9
 0001:00000794 0000000E C=CODE     S=.text    G=(none)   M=ComCtrls ACBP=A9
 0001:000007A4 00000038 C=CODE     S=.text    G=(none)   M=ShlObj   ACBP=A9
 0001:000007DC 00000038 C=CODE     S=.text    G=(none)   M=UrlMon   ACBP=A9
 0001:00000814 00000038 C=CODE     S=.text    G=(none)   M=WinInet  ACBP=A9
 0001:0000084C 00000038 C=CODE     S=.text    G=(none)   M=RegStr   ACBP=A9
 0001:00000884 00000038 C=CODE     S=.text    G=(none)   M=ShellAPI ACBP=A9
 0001:000008BC 0000000E C=CODE     S=.text    G=(none)   M=ListActns ACBP=A9
 0001:000008CC 0000000E C=CODE     S=.text    G=(none)   M=ExtCtrls ACBP=A9
 0001:000008DC 0000000E C=CODE     S=.text    G=(none)   M=StdCtrls ACBP=A9
 0001:000008EC 0000000E C=CODE     S=.text    G=(none)   M=WinHelpViewer ACBP=A9
 0001:000008FC 0000000E C=CODE     S=.text    G=(none)   M=StdActns ACBP=A9
 0001:0000090C 0000000E C=CODE     S=.text    G=(none)   M=Dialogs  ACBP=A9
 0001:0000091C 0000000E C=CODE     S=.text    G=(none)   M=Printers ACBP=A9
 0001:0000092C 00000038 C=CODE     S=.text    G=(none)   M=WinSpool ACBP=A9
 0001:00000964 00000038 C=CODE     S=.text    G=(none)   M=CommDlg  ACBP=A9
 0001:0000099C 00000038 C=CODE     S=.text    G=(none)   M=Dlgs     ACBP=A9
 0001:000009D4 0000000E C=CODE     S=.text    G=(none)   M=StrUtils ACBP=A9
 0001:000009E4 0000000E C=CODE     S=.text    G=(none)   M=Clipbrd  ACBP=A9
 0001:000009F4 0000000E C=CODE     S=.text    G=(none)   M=FlatSB   ACBP=A9
 0001:00000A04 0000000E C=CODE     S=.text    G=(none)   M=ToolWin  ACBP=A9
 0001:00000A14 00000038 C=CODE     S=.text    G=(none)   M=RichEdit ACBP=A9
 0001:00000A4C 0000000E C=CODE     S=.text    G=(none)   M=ExtActns ACBP=A9
 0001:00000A5C 0000000E C=CODE     S=.text    G=(none)   M=Registry ACBP=A9
 0001:00000A6C 0000000E C=CODE     S=.text    G=(none)   M=IniFiles ACBP=A9
 0001:00000A7C 0000000E C=CODE     S=.text    G=(none)   M=ExtDlgs  ACBP=A9
 0001:00000A8C 0000000E C=CODE     S=.text    G=(none)   M=Buttons  ACBP=A9
 0001:00000A9C 0000000E C=CODE     S=.text    G=(none)   M=Mapi     ACBP=A9
 0001:00000AAC 0000000E C=CODE     S=.text    G=(none)   M=ComStrs  ACBP=A9
 0001:00000ABC 0000000E C=CODE     S=.text    G=(none)   M=OleConst ACBP=A9
 0001:00000ACC 000000CE C=CODE     S=.text    G=(none)   M=OleCtrls ACBP=A9
 0001:00000B9C 0000000E C=CODE     S=.text    G=(none)   M=AxCtrls  ACBP=A9
 0001:00000BAC 0000000E C=CODE     S=.text    G=(none)   M=StdVCL   ACBP=A9
 0001:00000BBC 00008434 C=CODE     S=.text    G=(none)   M=SHDocVw  ACBP=A9
 0001:00008FF0 00010AA0 C=CODE     S=.text    G=(none)   M=MSHTML   ACBP=A9
 0001:00019A90 00000245 C=CODE     S=.text    G=(none)   M=vclie    ACBP=A9
 0002:00000000 0000002C C=DATA     S=.data    G=DGROUP   M=SysInit  ACBP=A9
 0002:0000002C 000003B4 C=DATA     S=.data    G=DGROUP   M=SHDocVw  ACBP=A9
 0002:000003E0 00001A0C C=DATA     S=.data    G=DGROUP   M=MSHTML   ACBP=A9
 0002:00002000 00000010 C=BSS      S=.bss     G=DGROUP   M=SysInit  ACBP=A9
 0002:00002010 00000004 C=BSS      S=.bss     G=DGROUP   M=Windows  ACBP=A9
 0002:00002014 00000004 C=BSS      S=.bss     G=DGROUP   M=Messages ACBP=A9
 0002:00002018 00000004 C=BSS      S=.bss     G=DGROUP   M=CommCtrl ACBP=A9
 0002:0000201C 00000004 C=BSS      S=.bss     G=DGROUP   M=Imm      ACBP=A9
 0002:00002020 00000004 C=BSS      S=.bss     G=DGROUP   M=ShlObj   ACBP=A9
 0002:00002024 00000004 C=BSS      S=.bss     G=DGROUP   M=UrlMon   ACBP=A9
 0002:00002028 00000004 C=BSS      S=.bss     G=DGROUP   M=WinInet  ACBP=A9
 0002:0000202C 00000004 C=BSS      S=.bss     G=DGROUP   M=RegStr   ACBP=A9
 0002:00002030 00000004 C=BSS      S=.bss     G=DGROUP   M=ShellAPI ACBP=A9
 0002:00002034 00000004 C=BSS      S=.bss     G=DGROUP   M=WinSpool ACBP=A9
 0002:00002038 00000004 C=BSS      S=.bss     G=DGROUP   M=CommDlg  ACBP=A9
 0002:0000203C 00000004 C=BSS      S=.bss     G=DGROUP   M=Dlgs     ACBP=A9
 0002:00002040 00000004 C=BSS      S=.bss     G=DGROUP   M=RichEdit ACBP=A9
 0002:00002044 00000004 C=BSS      S=.bss     G=DGROUP   M=SHDocVw  ACBP=A9
 0002:00002048 00000004 C=BSS      S=.bss     G=DGROUP   M=MSHTML   ACBP=A9


  Address         Publics by Name

 0002:00002024       .1
 0002:0000202C       .1
 0002:00002020       .1
 0002:0000201C       .1
 0002:00002030       .1
 0002:00002008       .1
 0002:00002018       .1
 0002:00002040       .1
 0002:00002014       .1
 0002:00002028       .1
 0002:00002038       .1
 0002:0000203C       .1
 0002:00002048       .111
 0002:00002010       .3
 0002:00002034       .3
 0002:00002044       .41
 0001:00019CB0       @GetPackageInfoTable
 0001:00000210       @InitPkg
 0001:00019CB8       @PackageLoad
 0001:00000274       @PackageLoad
 0001:00019CC4       @PackageUnload
 0001:00000280       @PackageUnload
 0001:00000110       AllocTlsBuffer
 0002:00000200       CControlData
 0002:00001D98       CControlData
 0002:0000029C       CControlData
 0002:00001D90       CEventDispIDs
 0002:00000254       CEventDispIDs
 0002:000001BC       CEventDispIDs
 0002:00001380       CLASS_CEventObj
 0002:000012F0       CLASS_CMimeTypes
 0002:00001310       CLASS_COpsProfile
 0002:00001300       CLASS_CPlugins
 0002:0000015C       CLASS_CScriptErrorList
 0002:00000620       CLASS_DOMChildrenCollection
 0002:00000780       CLASS_HTCAttachBehavior
 0002:00000700       CLASS_HTCDefaultDispatch
 0002:000007A0       CLASS_HTCDescBehavior
 0002:00000760       CLASS_HTCEventBehavior
 0002:00000740       CLASS_HTCMethodBehavior
 0002:00000720       CLASS_HTCPropertyBehavior
 0002:00000B30       CLASS_HTMLAnchorElement
 0002:00001CC0       CLASS_HTMLAppBehavior
 0002:00001620       CLASS_HTMLAreaElement
 0002:000015B0       CLASS_HTMLAreasCollection
 0002:00000600       CLASS_HTMLAttributeCollection
 0002:000011D0       CLASS_HTMLBaseElement
 0002:00001240       CLASS_HTMLBaseFontElement
 0002:00001AE0       CLASS_HTMLBGsound
 0002:00000C70       CLASS_HTMLBlockElement
 0002:00000AB0       CLASS_HTMLBody
 0002:00000D30       CLASS_HTMLBRElement
 0002:00001090       CLASS_HTMLButtonElement
 0002:00001680       CLASS_HTMLCommentElement
 0002:00000520       CLASS_HTMLCurrentStyle
 0002:00000CD0       CLASS_HTMLDDElement
 0002:00001C90       CLASS_HTMLDialog
 0002:00000CA0       CLASS_HTMLDivElement
 0002:00001A00       CLASS_HTMLDivPosition
 0002:00000D60       CLASS_HTMLDListElement
 0002:000014A0       CLASS_HTMLDocument
 0002:000014D0       CLASS_HTMLDocumentFragment
 0002:000005A0       CLASS_HTMLDOMAttribute
 0002:000005C0       CLASS_HTMLDOMTextNode
 0002:00000D00       CLASS_HTMLDTElement
 0002:00000DF0       CLASS_HTMLElementCollection
 0002:00001540       CLASS_HTMLEmbed
 0002:00001A20       CLASS_HTMLFieldSetElement
 0002:00000530       CLASS_HTMLFiltersCollection
 0002:00000AE0       CLASS_HTMLFontElement
 0002:00000960       CLASS_HTMLFormElement
 0002:00001940       CLASS_HTMLFrameBase
 0002:00001970       CLASS_HTMLFrameElement
 0002:00001AB0       CLASS_HTMLFrameSetSite
 0002:000007F0       CLASS_HTMLGenericElement
 0002:00001170       CLASS_HTMLHeadElement
 0002:00000E20       CLASS_HTMLHeaderElement
 0002:000012E0       CLASS_HTMLHistory
 0002:00000D90       CLASS_HTMLHRElement
 0002:00001150       CLASS_HTMLHtmlElement
 0002:000019B0       CLASS_HTMLIFrame
 0002:00000A70       CLASS_HTMLImageElementFactory
 0002:00000A60       CLASS_HTMLImg
 0002:00001D00       CLASS_HTMLInputButtonElement
 0002:00001010       CLASS_HTMLInputElement
 0002:00001D40       CLASS_HTMLInputFileElement
 0002:00001D80       CLASS_htmlInputImage
 0002:00001D20       CLASS_HTMLInputTextElement
 0002:000011F0       CLASS_HTMLIsIndexElement
 0002:00000B80       CLASS_HTMLLabelElement
 0002:00001A40       CLASS_HTMLLegendElement
 0002:00000C40       CLASS_HTMLLIElement
 0002:000008D0       CLASS_HTMLLinkElement
 0002:00000BB0       CLASS_HTMLListElement
 0002:00001330       CLASS_HTMLLocation
 0002:000015D0       CLASS_HTMLMapElement
 0002:000010E0       CLASS_HTMLMarqueeElement
 0002:000011B0       CLASS_HTMLMetaElement
 0002:00001320       CLASS_HTMLNavigator
 0002:00001210       CLASS_HTMLNextIdElement
 0002:000018B0       CLASS_HTMLNoShowElement
 0002:00001910       CLASS_HTMLObjectElement
 0002:00000C10       CLASS_HTMLOListElement
 0002:00001D60       CLASS_HTMLOptionButtonElement
 0002:00000ED0       CLASS_HTMLOptionElement
 0002:00000EE0       CLASS_HTMLOptionElementFactory
 0002:00000DC0       CLASS_HTMLParaElement
 0002:000016C0       CLASS_HTMLPhraseElement
 0002:00001060       CLASS_HTMLRichtextElement
 0002:000004F0       CLASS_HTMLRuleStyle
 0002:00001410       CLASS_HTMLScreen
 0002:00001880       CLASS_HTMLScriptElement
 0002:00000E80       CLASS_HTMLSelectElement
 0002:000016E0       CLASS_HTMLSpanElement
 0002:00001A70       CLASS_HTMLSpanFlow
 0002:000004D0       CLASS_HTMLStyle
 0002:00001B60       CLASS_HTMLStyleElement
 0002:00001B80       CLASS_HTMLStyleFontFace
 0002:00000860       CLASS_HTMLStyleSheet
 0002:00000820       CLASS_HTMLStyleSheetRule
 0002:00000830       CLASS_HTMLStyleSheetRulesCollection
 0002:00000870       CLASS_HTMLStyleSheetsCollection
 0002:000017B0       CLASS_HTMLTable
 0002:00001650       CLASS_HTMLTableCaption
 0002:00001830       CLASS_HTMLTableCell
 0002:000017D0       CLASS_HTMLTableCol
 0002:00001810       CLASS_HTMLTableRow
 0002:000017F0       CLASS_HTMLTableSection
 0002:00001040       CLASS_HTMLTextAreaElement
 0002:000009C0       CLASS_HTMLTextElement
 0002:00001190       CLASS_HTMLTitleElement
 0002:00000BE0       CLASS_HTMLUListElement
 0002:00001270       CLASS_HTMLUnknownElement
 0002:000007C0       CLASS_HTMLUrnCollection
 0002:00001430       CLASS_HTMLWindow2
 0002:00001450       CLASS_HTMLWindowProxy
 0002:000000AC       CLASS_InternetExplorer
 0002:00001CD0       CLASS_OldHTMLDocument
 0002:00001CE0       CLASS_OldHTMLFormElement
 0002:00001510       CLASS_Scriptlet
 0002:000001AC       CLASS_SearchAssistantOC
 0002:000000BC       CLASS_ShellBrowserWindow
 0002:0000013C       CLASS_ShellFavoritesNameSpace
 0002:0000010C       CLASS_ShellUIHelper
 0002:000000EC       CLASS_ShellWindows
 0002:00001C80       CLASS_ThreadDialogProcParam
 0002:0000009C       CLASS_WebBrowser
 0002:0000008C       CLASS_WebBrowser_V1
 0001:00017280       CoCEventObj.Create
 0001:000172E4       CoCEventObj.CreateRemote
 0001:00016E0C       CoCMimeTypes.Create
 0001:00016E70       CoCMimeTypes.CreateRemote
 0001:00016FD4       CoCOpsProfile.Create
 0001:00017038       CoCOpsProfile.CreateRemote
 0001:00016EF0       CoCPlugins.Create
 0001:00016F54       CoCPlugins.CreateRemote
 0001:00008DF0       CoCScriptErrorList.Create
 0001:00008E54       CoCScriptErrorList.CreateRemote
 0001:00013DF4       CoDOMChildrenCollection.Create
 0001:00013E58       CoDOMChildrenCollection.CreateRemote
 0001:00014268       CoHTCAttachBehavior.Create
 0001:000142CC       CoHTCAttachBehavior.CreateRemote
 0001:00013ED8       CoHTCDefaultDispatch.Create
 0001:00013F3C       CoHTCDefaultDispatch.CreateRemote
 0001:0001434C       CoHTCDescBehavior.Create
 0001:000143B0       CoHTCDescBehavior.CreateRemote
 0001:00014184       CoHTCEventBehavior.Create
 0001:000141E8       CoHTCEventBehavior.CreateRemote
 0001:000140A0       CoHTCMethodBehavior.Create
 0001:00014104       CoHTCMethodBehavior.CreateRemote
 0001:00013FBC       CoHTCPropertyBehavior.Create
 0001:00014020       CoHTCPropertyBehavior.CreateRemote
 0001:00014FC4       CoHTMLAnchorElement.Create
 0001:00015028       CoHTMLAnchorElement.CreateRemote
 0001:00019338       CoHTMLAppBehavior.Create
 0001:0001939C       CoHTMLAppBehavior.CreateRemote
 0001:00017C10       CoHTMLAreaElement.Create
 0001:00017C74       CoHTMLAreaElement.CreateRemote
 0001:00017A48       CoHTMLAreasCollection.Create
 0001:00017AAC       CoHTMLAreasCollection.CreateRemote
 0001:00013D10       CoHTMLAttributeCollection.Create
 0001:00013D74       CoHTMLAttributeCollection.CreateRemote
 0001:000168B4       CoHTMLBaseElement.Create
 0001:00016918       CoHTMLBaseElement.CreateRemote
 0001:00016B60       CoHTMLBaseFontElement.Create
 0001:00016BC4       CoHTMLBaseFontElement.CreateRemote
 0001:00018EC4       CoHTMLBGsound.Create
 0001:00018F28       CoHTMLBGsound.CreateRemote
 0001:0001551C       CoHTMLBlockElement.Create
 0001:00015580       CoHTMLBlockElement.CreateRemote
 0001:00014DFC       CoHTMLBody.Create
 0001:00014E60       CoHTMLBody.CreateRemote
 0001:000158AC       CoHTMLBRElement.Create
 0001:00015910       CoHTMLBRElement.CreateRemote
 0001:0001635C       CoHTMLButtonElement.Create
 0001:000163C0       CoHTMLButtonElement.CreateRemote
 0001:00017DD8       CoHTMLCommentElement.Create
 0001:00017E3C       CoHTMLCommentElement.CreateRemote
 0001:00013980       CoHTMLCurrentStyle.Create
 0001:000139E4       CoHTMLCurrentStyle.CreateRemote
 0001:000156E4       CoHTMLDDElement.Create
 0001:00015748       CoHTMLDDElement.CreateRemote
 0001:00019254       CoHTMLDialog.Create
 0001:000192B8       CoHTMLDialog.CreateRemote
 0001:00015600       CoHTMLDivElement.Create
 0001:00015664       CoHTMLDivElement.CreateRemote
 0001:00018A50       CoHTMLDivPosition.Create
 0001:00018AB4       CoHTMLDivPosition.CreateRemote
 0001:00015990       CoHTMLDListElement.Create
 0001:000159F4       CoHTMLDListElement.CreateRemote
 0001:00017610       CoHTMLDocument.Create
 0001:00017674       CoHTMLDocument.CreateRemote
 0001:000176F4       CoHTMLDocumentFragment.Create
 0001:00017758       CoHTMLDocumentFragment.CreateRemote
 0001:00013B48       CoHTMLDOMAttribute.Create
 0001:00013BAC       CoHTMLDOMAttribute.CreateRemote
 0001:00013C2C       CoHTMLDOMTextNode.Create
 0001:00013C90       CoHTMLDOMTextNode.CreateRemote
 0001:000157C8       CoHTMLDTElement.Create
 0001:0001582C       CoHTMLDTElement.CreateRemote
 0001:00015C3C       CoHTMLElementCollection.Create
 0001:00015CA0       CoHTMLElementCollection.CreateRemote
 0001:00017964       CoHTMLEmbed.Create
 0001:000179C8       CoHTMLEmbed.CreateRemote
 0001:00018B34       CoHTMLFieldSetElement.Create
 0001:00018B98       CoHTMLFieldSetElement.CreateRemote
 0001:00013A64       CoHTMLFiltersCollection.Create
 0001:00013AC8       CoHTMLFiltersCollection.CreateRemote
 0001:00014EE0       CoHTMLFontElement.Create
 0001:00014F44       CoHTMLFontElement.CreateRemote
 0001:00014A6C       CoHTMLFormElement.Create
 0001:00014AD0       CoHTMLFormElement.CreateRemote
 0001:000187A4       CoHTMLFrameBase.Create
 0001:00018808       CoHTMLFrameBase.CreateRemote
 0001:00018888       CoHTMLFrameElement.Create
 0001:000188EC       CoHTMLFrameElement.CreateRemote
 0001:00018DE0       CoHTMLFrameSetSite.Create
 0001:00018E44       CoHTMLFrameSetSite.CreateRemote
 0001:00014514       CoHTMLGenericElement.Create
 0001:00014578       CoHTMLGenericElement.CreateRemote
 0001:00016608       CoHTMLHeadElement.Create
 0001:0001666C       CoHTMLHeadElement.CreateRemote
 0001:00015D20       CoHTMLHeaderElement.Create
 0001:00015D84       CoHTMLHeaderElement.CreateRemote
 0001:00016D28       CoHTMLHistory.Create
 0001:00016D8C       CoHTMLHistory.CreateRemote
 0001:00015A74       CoHTMLHRElement.Create
 0001:00015AD8       CoHTMLHRElement.CreateRemote
 0001:00016524       CoHTMLHtmlElement.Create
 0001:00016588       CoHTMLHtmlElement.CreateRemote
 0001:0001896C       CoHTMLIFrame.Create
 0001:000189D0       CoHTMLIFrame.CreateRemote
 0001:00014D18       CoHTMLImageElementFactory.Create
 0001:00014D7C       CoHTMLImageElementFactory.CreateRemote
 0001:00014C34       CoHTMLImg.Create
 0001:00014C98       CoHTMLImg.CreateRemote
 0001:000195E4       CoHTMLInputButtonElement.Create
 0001:00019648       CoHTMLInputButtonElement.CreateRemote
 0001:000160B0       CoHTMLInputElement.Create
 0001:00016114       CoHTMLInputElement.CreateRemote
 0001:000197AC       CoHTMLInputFileElement.Create
 0001:00019810       CoHTMLInputFileElement.CreateRemote
 0001:00019974       CohtmlInputImage.Create
 0001:000199D8       CohtmlInputImage.CreateRemote
 0001:000196C8       CoHTMLInputTextElement.Create
 0001:0001972C       CoHTMLInputTextElement.CreateRemote
 0001:00016998       CoHTMLIsIndexElement.Create
 0001:000169FC       CoHTMLIsIndexElement.CreateRemote
 0001:000150A8       CoHTMLLabelElement.Create
 0001:0001510C       CoHTMLLabelElement.CreateRemote
 0001:00018C18       CoHTMLLegendElement.Create
 0001:00018C7C       CoHTMLLegendElement.CreateRemote
 0001:00015438       CoHTMLLIElement.Create
 0001:0001549C       CoHTMLLIElement.CreateRemote
 0001:00014988       CoHTMLLinkElement.Create
 0001:000149EC       CoHTMLLinkElement.CreateRemote
 0001:0001518C       CoHTMLListElement.Create
 0001:000151F0       CoHTMLListElement.CreateRemote
 0001:0001719C       CoHTMLLocation.Create
 0001:00017200       CoHTMLLocation.CreateRemote
 0001:00017B2C       CoHTMLMapElement.Create
 0001:00017B90       CoHTMLMapElement.CreateRemote
 0001:00016440       CoHTMLMarqueeElement.Create
 0001:000164A4       CoHTMLMarqueeElement.CreateRemote
 0001:000167D0       CoHTMLMetaElement.Create
 0001:00016834       CoHTMLMetaElement.CreateRemote
 0001:000170B8       CoHTMLNavigator.Create
 0001:0001711C       CoHTMLNavigator.CreateRemote
 0001:00016A7C       CoHTMLNextIdElement.Create
 0001:00016AE0       CoHTMLNextIdElement.CreateRemote
 0001:000185DC       CoHTMLNoShowElement.Create
 0001:00018640       CoHTMLNoShowElement.CreateRemote
 0001:000186C0       CoHTMLObjectElement.Create
 0001:00018724       CoHTMLObjectElement.CreateRemote
 0001:00015354       CoHTMLOListElement.Create
 0001:000153B8       CoHTMLOListElement.CreateRemote
 0001:00019890       CoHTMLOptionButtonElement.Create
 0001:000198F4       CoHTMLOptionButtonElement.CreateRemote
 0001:00015EE8       CoHTMLOptionElement.Create
 0001:00015F4C       CoHTMLOptionElement.CreateRemote
 0001:00015FCC       CoHTMLOptionElementFactory.Create
 0001:00016030       CoHTMLOptionElementFactory.CreateRemote
 0001:00015B58       CoHTMLParaElement.Create
 0001:00015BBC       CoHTMLParaElement.CreateRemote
 0001:00017EBC       CoHTMLPhraseElement.Create
 0001:00017F20       CoHTMLPhraseElement.CreateRemote
 0001:00016278       CoHTMLRichtextElement.Create
 0001:000162DC       CoHTMLRichtextElement.CreateRemote
 0001:0001389C       CoHTMLRuleStyle.Create
 0001:00013900       CoHTMLRuleStyle.CreateRemote
 0001:00017364       CoHTMLScreen.Create
 0001:000173C8       CoHTMLScreen.CreateRemote
 0001:000184F8       CoHTMLScriptElement.Create
 0001:0001855C       CoHTMLScriptElement.CreateRemote
 0001:00015E04       CoHTMLSelectElement.Create
 0001:00015E68       CoHTMLSelectElement.CreateRemote
 0001:00017FA0       CoHTMLSpanElement.Create
 0001:00018004       CoHTMLSpanElement.CreateRemote
 0001:00018CFC       CoHTMLSpanFlow.Create
 0001:00018D60       CoHTMLSpanFlow.CreateRemote
 0001:000137B8       CoHTMLStyle.Create
 0001:0001381C       CoHTMLStyle.CreateRemote
 0001:00018FA8       CoHTMLStyleElement.Create
 0001:0001900C       CoHTMLStyleElement.CreateRemote
 0001:0001908C       CoHTMLStyleFontFace.Create
 0001:000190F0       CoHTMLStyleFontFace.CreateRemote
 0001:000147C0       CoHTMLStyleSheet.Create
 0001:00014824       CoHTMLStyleSheet.CreateRemote
 0001:000145F8       CoHTMLStyleSheetRule.Create
 0001:0001465C       CoHTMLStyleSheetRule.CreateRemote
 0001:000146DC       CoHTMLStyleSheetRulesCollection.Create
 0001:00014740       CoHTMLStyleSheetRulesCollection.CreateRemote
 0001:000148A4       CoHTMLStyleSheetsCollection.Create
 0001:00014908       CoHTMLStyleSheetsCollection.CreateRemote
 0001:00018084       CoHTMLTable.Create
 0001:000180E8       CoHTMLTable.CreateRemote
 0001:00017CF4       CoHTMLTableCaption.Create
 0001:00017D58       CoHTMLTableCaption.CreateRemote
 0001:00018414       CoHTMLTableCell.Create
 0001:00018478       CoHTMLTableCell.CreateRemote
 0001:00018168       CoHTMLTableCol.Create
 0001:000181CC       CoHTMLTableCol.CreateRemote
 0001:00018330       CoHTMLTableRow.Create
 0001:00018394       CoHTMLTableRow.CreateRemote
 0001:0001824C       CoHTMLTableSection.Create
 0001:000182B0       CoHTMLTableSection.CreateRemote
 0001:00016194       CoHTMLTextAreaElement.Create
 0001:000161F8       CoHTMLTextAreaElement.CreateRemote
 0001:00014B50       CoHTMLTextElement.Create
 0001:00014BB4       CoHTMLTextElement.CreateRemote
 0001:000166EC       CoHTMLTitleElement.Create
 0001:00016750       CoHTMLTitleElement.CreateRemote
 0001:00015270       CoHTMLUListElement.Create
 0001:000152D4       CoHTMLUListElement.CreateRemote
 0001:00016C44       CoHTMLUnknownElement.Create
 0001:00016CA8       CoHTMLUnknownElement.CreateRemote
 0001:00014430       CoHTMLUrnCollection.Create
 0001:00014494       CoHTMLUrnCollection.CreateRemote
 0001:00017448       CoHTMLWindow2.Create
 0001:000174AC       CoHTMLWindow2.CreateRemote
 0001:0001752C       CoHTMLWindowProxy.Create
 0001:00017590       CoHTMLWindowProxy.CreateRemote
 0001:00005200       CoInternetExplorer.Create
 0001:00005264       CoInternetExplorer.CreateRemote
 0001:000006E4       CommCtrl
 0001:00000994       CommDlg
 0001:0001941C       CoOldHTMLDocument.Create
 0001:00019480       CoOldHTMLDocument.CreateRemote
 0001:00019500       CoOldHTMLFormElement.Create
 0001:00019564       CoOldHTMLFormElement.CreateRemote
 0001:00008ED4       CoSearchAssistantOC.Create
 0001:00008F38       CoSearchAssistantOC.CreateRemote
 0001:00007490       CoShellBrowserWindow.Create
 0001:000074F4       CoShellBrowserWindow.CreateRemote
 0001:000086E4       CoShellFavoritesNameSpace.Create
 0001:00008748       CoShellFavoritesNameSpace.CreateRemote
 0001:00007CD4       CoShellUIHelper.Create
 0001:00007D38       CoShellUIHelper.CreateRemote
 0001:00007574       CoShellWindows.Create
 0001:000075D8       CoShellWindows.CreateRemote
 0001:00019170       CoThreadDialogProcParam.Create
 0001:000191D4       CoThreadDialogProcParam.CreateRemote
 0002:00000368       CServerData
 0002:000003A4       CServerData
 0002:0000032C       CServerData
 0002:000002F0       CServerData
 0002:00001370       DIID_DispCEventObj
 0002:00000610       DIID_DispDOMChildrenCollection
 0002:00000770       DIID_DispHTCAttachBehavior
 0002:000006F0       DIID_DispHTCDefaultDispatch
 0002:00000790       DIID_DispHTCDescBehavior
 0002:00000750       DIID_DispHTCEventBehavior
 0002:00000730       DIID_DispHTCMethodBehavior
 0002:00000710       DIID_DispHTCPropertyBehavior
 0002:00000B20       DIID_DispHTMLAnchorElement
 0002:00001CB0       DIID_DispHTMLAppBehavior
 0002:00001610       DIID_DispHTMLAreaElement
 0002:000015A0       DIID_DispHTMLAreasCollection
 0002:000005F0       DIID_DispHTMLAttributeCollection
 0002:000011C0       DIID_DispHTMLBaseElement
 0002:00001230       DIID_DispHTMLBaseFontElement
 0002:00001AD0       DIID_DispHTMLBGsound
 0002:00000C60       DIID_DispHTMLBlockElement
 0002:00000AA0       DIID_DispHTMLBody
 0002:00000D20       DIID_DispHTMLBRElement
 0002:00001080       DIID_DispHTMLButtonElement
 0002:00001670       DIID_DispHTMLCommentElement
 0002:00000510       DIID_DispHTMLCurrentStyle
 0002:00000CC0       DIID_DispHTMLDDElement
 0002:00000C90       DIID_DispHTMLDivElement
 0002:000019F0       DIID_DispHTMLDivPosition
 0002:00000D50       DIID_DispHTMLDListElement
 0002:00001490       DIID_DispHTMLDocument
 0002:000014C0       DIID_DispHTMLDocumentFragment
 0002:00000590       DIID_DispHTMLDOMAttribute
 0002:000005B0       DIID_DispHTMLDOMTextNode
 0002:00000CF0       DIID_DispHTMLDTElement
 0002:00000DE0       DIID_DispHTMLElementCollection
 0002:00001530       DIID_DispHTMLEmbed
 0002:00001A10       DIID_DispHTMLFieldSetElement
 0002:00000AD0       DIID_DispHTMLFontElement
 0002:00000950       DIID_DispHTMLFormElement
 0002:00001930       DIID_DispHTMLFrameBase
 0002:00001960       DIID_DispHTMLFrameElement
 0002:00001AA0       DIID_DispHTMLFrameSetSite
 0002:000007E0       DIID_DispHTMLGenericElement
 0002:00001160       DIID_DispHTMLHeadElement
 0002:00000E10       DIID_DispHTMLHeaderElement
 0002:00000D80       DIID_DispHTMLHRElement
 0002:00001140       DIID_DispHTMLHtmlElement
 0002:000019A0       DIID_DispHTMLIFrame
 0002:00000A50       DIID_DispHTMLImg
 0002:00001000       DIID_DispHTMLInputElement
 0002:000011E0       DIID_DispHTMLIsIndexElement
 0002:00000B70       DIID_DispHTMLLabelElement
 0002:00001A30       DIID_DispHTMLLegendElement
 0002:00000C30       DIID_DispHTMLLIElement
 0002:000008C0       DIID_DispHTMLLinkElement
 0002:00000BA0       DIID_DispHTMLListElement
 0002:000015C0       DIID_DispHTMLMapElement
 0002:000010D0       DIID_DispHTMLMarqueeElement
 0002:000011A0       DIID_DispHTMLMetaElement
 0002:00001200       DIID_DispHTMLNextIdElement
 0002:000018A0       DIID_DispHTMLNoShowElement
 0002:00001900       DIID_DispHTMLObjectElement
 0002:00000C00       DIID_DispHTMLOListElement
 0002:00000EC0       DIID_DispHTMLOptionElement
 0002:00000DB0       DIID_DispHTMLParaElement
 0002:000016B0       DIID_DispHTMLPhraseElement
 0002:00001050       DIID_DispHTMLRichtextElement
 0002:000004E0       DIID_DispHTMLRuleStyle
 0002:00001870       DIID_DispHTMLScriptElement
 0002:00000E70       DIID_DispHTMLSelectElement
 0002:000016D0       DIID_DispHTMLSpanElement
 0002:00001A60       DIID_DispHTMLSpanFlow
 0002:000004C0       DIID_DispHTMLStyle
 0002:00001B50       DIID_DispHTMLStyleElement
 0002:000017A0       DIID_DispHTMLTable
 0002:00001640       DIID_DispHTMLTableCaption
 0002:00001820       DIID_DispHTMLTableCell
 0002:000017C0       DIID_DispHTMLTableCol
 0002:00001800       DIID_DispHTMLTableRow
 0002:000017E0       DIID_DispHTMLTableSection
 0002:00001030       DIID_DispHTMLTextAreaElement
 0002:000009B0       DIID_DispHTMLTextElement
 0002:00001180       DIID_DispHTMLTitleElement
 0002:00000BD0       DIID_DispHTMLUListElement
 0002:00001260       DIID_DispHTMLUnknownElement
 0002:00001420       DIID_DispHTMLWindow2
 0002:00001440       DIID_DispHTMLWindowProxy
 0002:00001CF0       DIID_DispIHTMLInputButtonElement
 0002:00001D30       DIID_DispIHTMLInputFileElement
 0002:00001D70       DIID_DispIHTMLInputImage
 0002:00001D10       DIID_DispIHTMLInputTextElement
 0002:00001D50       DIID_DispIHTMLOptionButtonElement
 0002:000000CC       DIID_DShellWindowsEvents
 0002:000014E0       DIID_DWebBridgeEvents
 0002:0000004C       DIID_DWebBrowserEvents
 0002:0000007C       DIID_DWebBrowserEvents2
 0002:00000B00       DIID_HTMLAnchorEvents
 0002:00000AF0       DIID_HTMLAnchorEvents2
 0002:000015F0       DIID_HTMLAreaEvents
 0002:000015E0       DIID_HTMLAreaEvents2
 0002:00000F00       DIID_HTMLButtonElementEvents
 0002:00000EF0       DIID_HTMLButtonElementEvents2
 0002:00000980       DIID_HTMLControlElementEvents
 0002:00000970       DIID_HTMLControlElementEvents2
 0002:00001470       DIID_HTMLDocumentEvents
 0002:00001460       DIID_HTMLDocumentEvents2
 0002:00000640       DIID_HTMLElementEvents
 0002:00000630       DIID_HTMLElementEvents2
 0002:00000920       DIID_HTMLFormElementEvents
 0002:00000910       DIID_HTMLFormElementEvents2
 0002:00000A20       DIID_HTMLImgEvents
 0002:00000A10       DIID_HTMLImgEvents2
 0002:00000F70       DIID_HTMLInputFileElementEvents
 0002:00000F30       DIID_HTMLInputFileElementEvents2
 0002:00000F80       DIID_HTMLInputImageEvents
 0002:00000F40       DIID_HTMLInputImageEvents2
 0002:00000F50       DIID_HTMLInputTextElementEvents
 0002:00000F10       DIID_HTMLInputTextElementEvents2
 0002:00000B50       DIID_HTMLLabelEvents
 0002:00000B40       DIID_HTMLLabelEvents2
 0002:00000890       DIID_HTMLLinkElementEvents
 0002:00000880       DIID_HTMLLinkElementEvents2
 0002:00001560       DIID_HTMLMapEvents
 0002:00001550       DIID_HTMLMapEvents2
 0002:000010B0       DIID_HTMLMarqueeElementEvents
 0002:000010A0       DIID_HTMLMarqueeElementEvents2
 0002:000018D0       DIID_HTMLObjectElementEvents
 0002:000018C0       DIID_HTMLObjectElementEvents2
 0002:00000F60       DIID_HTMLOptionButtonElementEvents
 0002:00000F20       DIID_HTMLOptionButtonElementEvents2
 0002:00001850       DIID_HTMLScriptEvents
 0002:00001840       DIID_HTMLScriptEvents2
 0002:00000E40       DIID_HTMLSelectElementEvents
 0002:00000E30       DIID_HTMLSelectElementEvents2
 0002:00001B30       DIID_HTMLStyleElementEvents
 0002:00001B20       DIID_HTMLStyleElementEvents2
 0002:00001700       DIID_HTMLTableEvents
 0002:000016F0       DIID_HTMLTableEvents2
 0002:000009E0       DIID_HTMLTextContainerEvents
 0002:000009D0       DIID_HTMLTextContainerEvents2
 0002:000013A0       DIID_HTMLWindowEvents
 0002:00001390       DIID_HTMLWindowEvents2
 0002:0000019C       DIID__SearchAssistantEvents
 0002:0000011C       DIID__ShellFavoritesNameSpaceEvents
 0001:000009CC       Dlgs
 0001:000177F4       DoCreate
 0001:00004498       DoCreate
 0001:00003DA4       DoCreate
 0001:000001BC       ExitProcessTLS
 0001:00000194       ExitThreadTLS
 0001:00000A14       Finalization
 0001:000002C4       Finalization
 0001:0000028C       Finalization
 0001:0000031C       Finalization
 0001:000006B4       Finalization
 0001:00019A58       Finalization
 0001:00008FB8       Finalization
 0001:0000071C       Finalization
 0001:000007DC       Finalization
 0001:0000099C       Finalization
 0001:00000964       Finalization
 0001:0000092C       Finalization
 0001:00000884       Finalization
 0001:0000084C       Finalization
 0001:00000814       Finalization
 0001:000007A4       Finalization
 0001:000000D8       FreeLibrary
 0001:0000011C       GetTlsSize
 0002:00002004       HInstance
 0002:00001BC0       IID_IActiveIMMApp
 0002:00001C00       IID_ICSSFilter
 0002:00001B90       IID_ICSSFilterSite
 0002:00000440       IID_IElementBehavior
 0002:00000450       IID_IElementBehaviorFactory
 0002:00000470       IID_IElementBehaviorRender
 0002:00000430       IID_IElementBehaviorSite
 0002:00000460       IID_IElementBehaviorSiteOM
 0002:00000480       IID_IElementBehaviorSiteRender
 0002:00001BF0       IID_IEnumInputContext
 0002:00001BD0       IID_IEnumRegisterWordA
 0002:00001BE0       IID_IEnumRegisterWordW
 0002:000006D0       IID_IHTCAttachBehavior
 0002:00000690       IID_IHTCDefaultDispatch
 0002:000006E0       IID_IHTCDescBehavior
 0002:000006C0       IID_IHTCEventBehavior
 0002:000006B0       IID_IHTCMethodBehavior
 0002:000006A0       IID_IHTCPropertyBehavior
 0002:00000B10       IID_IHTMLAnchorElement
 0002:00001CA0       IID_IHTMLAppBehavior
 0002:00001600       IID_IHTMLAreaElement
 0002:00001570       IID_IHTMLAreasCollection
 0002:00001580       IID_IHTMLAreasCollection2
 0002:000005D0       IID_IHTMLAttributeCollection
 0002:00001110       IID_IHTMLBaseElement
 0002:00001220       IID_IHTMLBaseFontElement
 0002:00001AC0       IID_IHTMLBGsound
 0002:00000C50       IID_IHTMLBlockElement
 0002:00000A80       IID_IHTMLBodyElement
 0002:00000A90       IID_IHTMLBodyElement2
 0002:00001340       IID_IHTMLBookmarkCollection
 0002:00000D10       IID_IHTMLBRElement
 0002:00001070       IID_IHTMLButtonElement
 0002:00001660       IID_IHTMLCommentElement
 0002:00000990       IID_IHTMLControlElement
 0002:00000A00       IID_IHTMLControlRange
 0002:00000500       IID_IHTMLCurrentStyle
 0002:00000680       IID_IHTMLDatabinding
 0002:00001350       IID_IHTMLDataTransfer
 0002:00000CB0       IID_IHTMLDDElement
 0002:00001C50       IID_IHTMLDialog
 0002:00001C60       IID_IHTMLDialog2
 0002:00000C80       IID_IHTMLDivElement
 0002:000019C0       IID_IHTMLDivPosition
 0002:00000D40       IID_IHTMLDListElement
 0002:000013B0       IID_IHTMLDocument
 0002:000013C0       IID_IHTMLDocument2
 0002:00001480       IID_IHTMLDocument3
 0002:000014B0       IID_IHTMLDocumentFragment
 0002:00000570       IID_IHTMLDOMAttribute
 0002:000005E0       IID_IHTMLDOMChildrenCollection
 0002:00000560       IID_IHTMLDOMNode
 0002:00000580       IID_IHTMLDOMTextNode
 0002:00000CE0       IID_IHTMLDTElement
 0002:00000400       IID_IHTMLElement
 0002:00000660       IID_IHTMLElement2
 0002:00000650       IID_IHTMLElementCollection
 0002:00000DD0       IID_IHTMLElementCollection2
 0002:00001520       IID_IHTMLEmbedElement
 0002:000003F0       IID_IHTMLEventObj
 0002:00001360       IID_IHTMLEventObj2
 0002:000019D0       IID_IHTMLFieldSetElement
 0002:00000420       IID_IHTMLFiltersCollection
 0002:00000AC0       IID_IHTMLFontElement
 0002:00001AF0       IID_IHTMLFontNamesCollection
 0002:00001B00       IID_IHTMLFontSizesCollection
 0002:00000930       IID_IHTMLFormElement
 0002:00000940       IID_IHTMLFormElement2
 0002:00001920       IID_IHTMLFrameBase
 0002:00001950       IID_IHTMLFrameElement
 0002:000013D0       IID_IHTMLFramesCollection2
 0002:00001A80       IID_IHTMLFrameSetElement
 0002:00001A90       IID_IHTMLFrameSetElement2
 0002:000007D0       IID_IHTMLGenericElement
 0002:00000E00       IID_IHTMLHeaderElement
 0002:00000D70       IID_IHTMLHRElement
 0002:00001980       IID_IHTMLIFrameElement
 0002:00001990       IID_IHTMLIFrameElement2
 0002:00000A40       IID_IHTMLImageElementFactory
 0002:00000A30       IID_IHTMLImgElement
 0002:00000FA0       IID_IHTMLInputButtonElement
 0002:00000F90       IID_IHTMLInputElement
 0002:00000FD0       IID_IHTMLInputFileElement
 0002:00000FB0       IID_IHTMLInputHiddenElement
 0002:00000FF0       IID_IHTMLInputImage
 0002:00000FC0       IID_IHTMLInputTextElement
 0002:00001120       IID_IHTMLIsIndexElement
 0002:00000B60       IID_IHTMLLabelElement
 0002:000019E0       IID_IHTMLLegendElement
 0002:00000C20       IID_IHTMLLIElement
 0002:000008A0       IID_IHTMLLinkElement
 0002:000008B0       IID_IHTMLLinkElement2
 0002:00000B90       IID_IHTMLListElement
 0002:000012D0       IID_IHTMLLocation
 0002:00001590       IID_IHTMLMapElement
 0002:000010C0       IID_IHTMLMarqueeElement
 0002:00001100       IID_IHTMLMetaElement
 0002:00001290       IID_IHTMLMimeTypesCollection
 0002:00001C70       IID_IHTMLModelessInit
 0002:00001130       IID_IHTMLNextIdElement
 0002:00001890       IID_IHTMLNoShowElement
 0002:000018E0       IID_IHTMLObjectElement
 0002:000018F0       IID_IHTMLObjectElement2
 0002:00000BF0       IID_IHTMLOListElement
 0002:000012B0       IID_IHTMLOpsProfile
 0002:00000FE0       IID_IHTMLOptionButtonElement
 0002:00000EA0       IID_IHTMLOptionElement
 0002:00000EB0       IID_IHTMLOptionElementFactory
 0002:00001B10       IID_IHTMLOptionsHolder
 0002:00000DA0       IID_IHTMLParaElement
 0002:00001690       IID_IHTMLPhraseElement
 0002:000012A0       IID_IHTMLPluginsCollection
 0002:00000540       IID_IHTMLRect
 0002:00000550       IID_IHTMLRectCollection
 0002:000004A0       IID_IHTMLRuleStyle
 0002:000004B0       IID_IHTMLRuleStyle2
 0002:000013F0       IID_IHTMLScreen
 0002:00001860       IID_IHTMLScriptElement
 0002:00000E50       IID_IHTMLSelectElement
 0002:00000E60       IID_IHTMLSelectElement2
 0002:00000E90       IID_IHTMLSelectionObject
 0002:000016A0       IID_IHTMLSpanElement
 0002:00001A50       IID_IHTMLSpanFlow
 0002:00000410       IID_IHTMLStyle
 0002:00000490       IID_IHTMLStyle2
 0002:00001B40       IID_IHTMLStyleElement
 0002:00001B70       IID_IHTMLStyleFontFace
 0002:00000850       IID_IHTMLStyleSheet
 0002:00000800       IID_IHTMLStyleSheetRule
 0002:00000810       IID_IHTMLStyleSheetRulesCollection
 0002:00000840       IID_IHTMLStyleSheetsCollection
 0002:00001720       IID_IHTMLTable
 0002:00001730       IID_IHTMLTable2
 0002:00001630       IID_IHTMLTableCaption
 0002:00001790       IID_IHTMLTableCell
 0002:00001740       IID_IHTMLTableCol
 0002:00001760       IID_IHTMLTableRow
 0002:00001770       IID_IHTMLTableRow2
 0002:00001780       IID_IHTMLTableRowMetrics
 0002:00001710       IID_IHTMLTableSection
 0002:00001750       IID_IHTMLTableSection2
 0002:00001020       IID_IHTMLTextAreaElement
 0002:000009F0       IID_IHTMLTextContainer
 0002:000009A0       IID_IHTMLTextElement
 0002:000008F0       IID_IHTMLTextRangeMetrics
 0002:00000900       IID_IHTMLTextRangeMetrics2
 0002:000010F0       IID_IHTMLTitleElement
 0002:000008E0       IID_IHTMLTxtRange
 0002:00000BC0       IID_IHTMLUListElement
 0002:00000670       IID_IHTMLUniqueName
 0002:00001250       IID_IHTMLUnknownElement
 0002:000007B0       IID_IHTMLUrnCollection
 0002:000013E0       IID_IHTMLWindow2
 0002:00001400       IID_IHTMLWindow3
 0002:00001BB0       IID_IMarkupContainer
 0002:00001BA0       IID_IMarkupPointer
 0002:00001C20       IID_IMarkupServices
 0002:00001C30       IID_IMarkupTextFrags
 0002:00001280       IID_IOmHistory
 0002:000012C0       IID_IOmNavigator
 0002:0000014C       IID_IScriptErrorList
 0002:0000016C       IID_ISearch
 0002:0000018C       IID_ISearchAssistantOC
 0002:0000017C       IID_ISearches
 0002:00001C10       IID_ISecureUrlHost
 0002:0000012C       IID_IShellFavoritesNameSpace
 0002:000000FC       IID_IShellUIHelper
 0002:000000DC       IID_IShellWindows
 0002:00001500       IID_IWBScriptControl
 0002:000014F0       IID_IWebBridge
 0002:0000003C       IID_IWebBrowser
 0002:0000006C       IID_IWebBrowser2
 0002:0000005C       IID_IWebBrowserApp
 0002:00001C40       IID_IXMLGenericParse
 0001:0000074C       Imm
 0001:000001E0       InitializeModule
 0001:00000168       InitProcessTLS
 0001:00000124       InitThreadTLS
 0002:000003E0       LIBID_MSHTML
 0002:0000002C       LIBID_SHDocVw
 0001:000000E0       LocalAlloc
 0001:000000E8       LocalFree
 0001:0000034C       Messages
 0002:00000004       Module
 0002:00002000       ModuleIsLib
 0002:00002001       ModuleIsPackage
 0001:00019A88       MSHTML
 0001:0000087C       RegStr
 0001:00000A44       RichEdit
 0001:00008FE8       SHDocVw
 0001:000008B4       ShellAPI
 0001:000007D4       ShlObj
 0001:000002BC       SysInit
 0001:00006E54       TInternetExplorer.ClientToWindow
 0001:000052F0       TInternetExplorer.Connect
 0001:00005368       TInternetExplorer.ConnectTo
 0001:0000541C       TInternetExplorer.Create
 0001:00005454       TInternetExplorer.Destroy
 0001:000053CC       TInternetExplorer.Disconnect
 0001:00007294       TInternetExplorer.ExecWB
 0001:0000722C       TInternetExplorer.ExecWB
 0001:000072FC       TInternetExplorer.ExecWB
 0001:000053F4       TInternetExplorer.GetDefaultInterface
 0001:00006F38       TInternetExplorer.GetProperty
 0001:000067E4       TInternetExplorer.Get_AddressBar
 0001:000057D8       TInternetExplorer.Get_Application
 0001:00005D8C       TInternetExplorer.Get_Busy
 0001:00005890       TInternetExplorer.Get_Container
 0001:000058EC       TInternetExplorer.Get_Document
 0001:00005EB0       TInternetExplorer.Get_FullName
 0001:00006318       TInternetExplorer.Get_FullScreen
 0001:00005C20       TInternetExplorer.Get_Height
 0001:00005E4C       TInternetExplorer.Get_HWND
 0001:00005A04       TInternetExplorer.Get_Left
 0001:00005CD4       TInternetExplorer.Get_LocationName
 0001:00005D30       TInternetExplorer.Get_LocationURL
 0001:0000625C       TInternetExplorer.Get_MenuBar
 0001:00005DEC       TInternetExplorer.Get_Name
 0001:00006438       TInternetExplorer.Get_Offline
 0001:00005834       TInternetExplorer.Get_Parent
 0001:00005F10       TInternetExplorer.Get_Path
 0001:000063D4       TInternetExplorer.Get_ReadyState
 0001:000065B0       TInternetExplorer.Get_RegisterAsBrowser
 0001:0000666C       TInternetExplorer.Get_RegisterAsDropTarget
 0001:000068A0       TInternetExplorer.Get_Resizable
 0001:000064F4       TInternetExplorer.Get_Silent
 0001:0000602C       TInternetExplorer.Get_StatusBar
 0001:000060E8       TInternetExplorer.Get_StatusText
 0001:00006728       TInternetExplorer.Get_TheaterMode
 0001:000061A0       TInternetExplorer.Get_ToolBar
 0001:00005AB8       TInternetExplorer.Get_Top
 0001:00005948       TInternetExplorer.Get_TopLevelContainer
 0001:000059A8       TInternetExplorer.Get_Type_
 0001:00005F70       TInternetExplorer.Get_Visible
 0001:00005B6C       TInternetExplorer.Get_Width
 0001:0000695C       TInternetExplorer.GoBack
 0001:000069AC       TInternetExplorer.GoForward
 0001:000069FC       TInternetExplorer.GoHome
 0001:00006A4C       TInternetExplorer.GoSearch
 0001:000052E4       TInternetExplorer.InitServerData
 0001:0000547C       TInternetExplorer.InvokeEvent
 0001:00006C4C       TInternetExplorer.Navigate
 0001:00006B74       TInternetExplorer.Navigate
 0001:00006A9C       TInternetExplorer.Navigate
 0001:00006B08       TInternetExplorer.Navigate
 0001:00006BE0       TInternetExplorer.Navigate
 0001:00007158       TInternetExplorer.Navigate2
 0001:000070EC       TInternetExplorer.Navigate2
 0001:0000707C       TInternetExplorer.Navigate2
 0001:0000700C       TInternetExplorer.Navigate2
 0001:00006F9C       TInternetExplorer.Navigate2
 0001:00006EB0       TInternetExplorer.PutProperty
 0001:000071C4       TInternetExplorer.QueryStatusWB
 0001:00006E00       TInternetExplorer.Quit
 0001:00006CB4       TInternetExplorer.Refresh
 0001:00006D04       TInternetExplorer.Refresh2
 0001:00006D5C       TInternetExplorer.Refresh2
 0001:00006848       TInternetExplorer.Set_AddressBar
 0001:0000637C       TInternetExplorer.Set_FullScreen
 0001:00005C80       TInternetExplorer.Set_Height
 0001:00005A64       TInternetExplorer.Set_Left
 0001:000062C0       TInternetExplorer.Set_MenuBar
 0001:0000649C       TInternetExplorer.Set_Offline
 0001:00006614       TInternetExplorer.Set_RegisterAsBrowser
 0001:000066D0       TInternetExplorer.Set_RegisterAsDropTarget
 0001:00006904       TInternetExplorer.Set_Resizable
 0001:00006558       TInternetExplorer.Set_Silent
 0001:00006090       TInternetExplorer.Set_StatusBar
 0001:00006148       TInternetExplorer.Set_StatusText
 0001:0000678C       TInternetExplorer.Set_TheaterMode
 0001:00006204       TInternetExplorer.Set_ToolBar
 0001:00005B18       TInternetExplorer.Set_Top
 0001:00005FD4       TInternetExplorer.Set_Visible
 0001:00005BCC       TInternetExplorer.Set_Width
 0001:0000742C       TInternetExplorer.ShowBrowserBar
 0001:00007364       TInternetExplorer.ShowBrowserBar
 0001:000073C8       TInternetExplorer.ShowBrowserBar
 0001:00006DB0       TInternetExplorer.Stop
 0001:000000F0       TlsAlloc
 0002:0000200C       tlsBuffer
 0001:000000F8       TlsFree
 0001:00000100       TlsGetValue
 0002:00000000       TlsIndex
 0002:BF805000       TlsLast
 0002:0000001C       TlsProc
 0001:00000108       TlsSetValue
 0001:00017914       TScriptlet.AboutBox
 0001:00017878       TScriptlet.CreateControl
 0001:00017898       TScriptlet.GetControlInterface
 0001:000178B8       TScriptlet.Get_event
 0001:000177D8       TScriptlet.InitControlData
 0001:000087D4       TShellFavoritesNameSpace.Connect
 0001:00008848       TShellFavoritesNameSpace.ConnectTo
 0001:000088E8       TShellFavoritesNameSpace.Create
 0001:00008CDC       TShellFavoritesNameSpace.CreateSubscriptionForSelection
 0001:00008D3C       TShellFavoritesNameSpace.DeleteSubscriptionForSelection
 0001:00008920       TShellFavoritesNameSpace.Destroy
 0001:000088A8       TShellFavoritesNameSpace.Disconnect
 0001:00008BE8       TShellFavoritesNameSpace.Export
 0001:000088C8       TShellFavoritesNameSpace.GetDefaultInterface
 0001:000089A8       TShellFavoritesNameSpace.Get_FOfflinePackInstalled
 0001:00008B98       TShellFavoritesNameSpace.Import
 0001:000087C8       TShellFavoritesNameSpace.InitServerData
 0001:00008C38       TShellFavoritesNameSpace.InvokeContextMenuCommand
 0001:00008948       TShellFavoritesNameSpace.InvokeEvent
 0001:00008A58       TShellFavoritesNameSpace.MoveSelectionDown
 0001:00008C8C       TShellFavoritesNameSpace.MoveSelectionTo
 0001:00008A08       TShellFavoritesNameSpace.MoveSelectionUp
 0001:00008AF8       TShellFavoritesNameSpace.NewFolder
 0001:00008AA8       TShellFavoritesNameSpace.ResetSort
 0001:00008D9C       TShellFavoritesNameSpace.SetRoot
 0001:00008B48       TShellFavoritesNameSpace.Synchronize
 0001:000080BC       TShellUIHelper.AddChannel
 0001:000082D8       TShellUIHelper.AddDesktopComponent
 0001:00008110       TShellUIHelper.AddDesktopComponent
 0001:00008268       TShellUIHelper.AddDesktopComponent
 0001:000081F8       TShellUIHelper.AddDesktopComponent
 0001:00008184       TShellUIHelper.AddDesktopComponent
 0001:00008004       TShellUIHelper.AddFavorite
 0001:00008060       TShellUIHelper.AddFavorite
 0001:0000862C       TShellUIHelper.AutoCompleteAttach
 0001:000085D4       TShellUIHelper.AutoCompleteAttach
 0001:000084C0       TShellUIHelper.AutoCompleteSaveForm
 0001:00008468       TShellUIHelper.AutoCompleteSaveForm
 0001:00008574       TShellUIHelper.AutoScan
 0001:00008514       TShellUIHelper.AutoScan
 0001:00007DC4       TShellUIHelper.Connect
 0001:00007E2C       TShellUIHelper.ConnectTo
 0001:00007EB4       TShellUIHelper.Create
 0001:00007EEC       TShellUIHelper.Destroy
 0001:00007E80       TShellUIHelper.Disconnect
 0001:00007E94       TShellUIHelper.GetDefaultInterface
 0001:0000840C       TShellUIHelper.ImportExportFavorites
 0001:00007DB8       TShellUIHelper.InitServerData
 0001:00008344       TShellUIHelper.IsSubscribed
 0001:000083AC       TShellUIHelper.NavigateAndFind
 0001:00007FB4       TShellUIHelper.RefreshOfflineDesktop
 0001:00007F14       TShellUIHelper.ResetFirstBootMode
 0001:00007F64       TShellUIHelper.ResetSafeMode
 0001:00008680       TShellUIHelper.ShowBrowserUI
 0001:00007664       TShellWindows.Connect
 0001:000076D8       TShellWindows.ConnectTo
 0001:00007778       TShellWindows.Create
 0001:000077B0       TShellWindows.Destroy
 0001:00007738       TShellWindows.Disconnect
 0001:00007BB4       TShellWindows.FindWindow
 0001:00007758       TShellWindows.GetDefaultInterface
 0001:00007828       TShellWindows.Get_Count
 0001:00007658       TShellWindows.InitServerData
 0001:000077D8       TShellWindows.InvokeEvent
 0001:00007888       TShellWindows.Item
 0001:000078F4       TShellWindows.Item
 0001:00007B58       TShellWindows.OnActivated
 0001:00007C24       TShellWindows.OnCreated
 0001:00007AFC       TShellWindows.OnNavigate
 0001:00007C80       TShellWindows.ProcessAttachDetach
 0001:000079DC       TShellWindows.Register
 0001:00007A40       TShellWindows.RegisterPending
 0001:00007AA8       TShellWindows.Revoke
 0001:00007980       TShellWindows._NewEnum
 0001:00004BC4       TWebBrowser.ClientToWindow
 0001:0000451C       TWebBrowser.CreateControl
 0001:0000506C       TWebBrowser.ExecWB
 0001:00004F9C       TWebBrowser.ExecWB
 0001:00005004       TWebBrowser.ExecWB
 0001:0000453C       TWebBrowser.GetControlInterface
 0001:00004CA8       TWebBrowser.GetProperty
 0001:0000455C       TWebBrowser.Get_Application
 0001:00004614       TWebBrowser.Get_Container
 0001:00004670       TWebBrowser.Get_Document
 0001:000045B8       TWebBrowser.Get_Parent
 0001:000046CC       TWebBrowser.GoBack
 0001:0000471C       TWebBrowser.GoForward
 0001:0000476C       TWebBrowser.GoHome
 0001:000047BC       TWebBrowser.GoSearch
 0001:0000447C       TWebBrowser.InitControlData
 0001:0000480C       TWebBrowser.Navigate
 0001:00004878       TWebBrowser.Navigate
 0001:000048E4       TWebBrowser.Navigate
 0001:00004950       TWebBrowser.Navigate
 0001:000049BC       TWebBrowser.Navigate
 0001:00004EC8       TWebBrowser.Navigate2
 0001:00004D0C       TWebBrowser.Navigate2
 0001:00004E5C       TWebBrowser.Navigate2
 0001:00004DEC       TWebBrowser.Navigate2
 0001:00004D7C       TWebBrowser.Navigate2
 0001:00004C20       TWebBrowser.PutProperty
 0001:00004F34       TWebBrowser.QueryStatusWB
 0001:00004B70       TWebBrowser.Quit
 0001:00004A24       TWebBrowser.Refresh
 0001:00004ACC       TWebBrowser.Refresh2
 0001:00004A74       TWebBrowser.Refresh2
 0001:000050D4       TWebBrowser.ShowBrowserBar
 0001:0000519C       TWebBrowser.ShowBrowserBar
 0001:00005138       TWebBrowser.ShowBrowserBar
 0001:00004B20       TWebBrowser.Stop
 0001:00003E28       TWebBrowser_V1.CreateControl
 0001:00003E48       TWebBrowser_V1.GetControlInterface
 0001:00003E68       TWebBrowser_V1.Get_Application
 0001:00003F20       TWebBrowser_V1.Get_Container
 0001:00003F7C       TWebBrowser_V1.Get_Document
 0001:00003EC4       TWebBrowser_V1.Get_Parent
 0001:00003FD8       TWebBrowser_V1.GoBack
 0001:00004028       TWebBrowser_V1.GoForward
 0001:00004078       TWebBrowser_V1.GoHome
 0001:000040C8       TWebBrowser_V1.GoSearch
 0001:00003D88       TWebBrowser_V1.InitControlData
 0001:00004118       TWebBrowser_V1.Navigate
 0001:000042C8       TWebBrowser_V1.Navigate
 0001:00004184       TWebBrowser_V1.Navigate
 0001:000041F0       TWebBrowser_V1.Navigate
 0001:0000425C       TWebBrowser_V1.Navigate
 0001:00004330       TWebBrowser_V1.Refresh
 0001:00004380       TWebBrowser_V1.Refresh2
 0001:000043D8       TWebBrowser_V1.Refresh2
 0001:0000442C       TWebBrowser_V1.Stop
 0001:000001EC       UninitializeModule
 0001:0000080C       UrlMon
 0001:00019CD0       vclie
 0001:000002F4       Windows
 0001:00000844       WinInet
 0001:0000095C       WinSpool


  Address         Publics by Value

 0002:BF805000       TlsLast
 0001:000000D8       FreeLibrary
 0001:000000E0       LocalAlloc
 0001:000000E8       LocalFree
 0001:000000F0       TlsAlloc
 0001:000000F8       TlsFree
 0001:00000100       TlsGetValue
 0001:00000108       TlsSetValue
 0001:00000110       AllocTlsBuffer
 0001:0000011C       GetTlsSize
 0001:00000124       InitThreadTLS
 0001:00000168       InitProcessTLS
 0001:00000194       ExitThreadTLS
 0001:000001BC       ExitProcessTLS
 0001:000001E0       InitializeModule
 0001:000001EC       UninitializeModule
 0001:00000210       @InitPkg
 0001:00000274       @PackageLoad
 0001:00000280       @PackageUnload
 0001:0000028C       Finalization
 0001:000002BC       SysInit
 0001:000002C4       Finalization
 0001:000002F4       Windows
 0001:0000031C       Finalization
 0001:0000034C       Messages
 0001:000006B4       Finalization
 0001:000006E4       CommCtrl
 0001:0000071C       Finalization
 0001:0000074C       Imm
 0001:000007A4       Finalization
 0001:000007D4       ShlObj
 0001:000007DC       Finalization
 0001:0000080C       UrlMon
 0001:00000814       Finalization
 0001:00000844       WinInet
 0001:0000084C       Finalization
 0001:0000087C       RegStr
 0001:00000884       Finalization
 0001:000008B4       ShellAPI
 0001:0000092C       Finalization
 0001:0000095C       WinSpool
 0001:00000964       Finalization
 0001:00000994       CommDlg
 0001:0000099C       Finalization
 0001:000009CC       Dlgs
 0001:00000A14       Finalization
 0001:00000A44       RichEdit
 0001:00003D88       TWebBrowser_V1.InitControlData
 0001:00003DA4       DoCreate
 0001:00003E28       TWebBrowser_V1.CreateControl
 0001:00003E48       TWebBrowser_V1.GetControlInterface
 0001:00003E68       TWebBrowser_V1.Get_Application
 0001:00003EC4       TWebBrowser_V1.Get_Parent
 0001:00003F20       TWebBrowser_V1.Get_Container
 0001:00003F7C       TWebBrowser_V1.Get_Document
 0001:00003FD8       TWebBrowser_V1.GoBack
 0001:00004028       TWebBrowser_V1.GoForward
 0001:00004078       TWebBrowser_V1.GoHome
 0001:000040C8       TWebBrowser_V1.GoSearch
 0001:00004118       TWebBrowser_V1.Navigate
 0001:00004184       TWebBrowser_V1.Navigate
 0001:000041F0       TWebBrowser_V1.Navigate
 0001:0000425C       TWebBrowser_V1.Navigate
 0001:000042C8       TWebBrowser_V1.Navigate
 0001:00004330       TWebBrowser_V1.Refresh
 0001:00004380       TWebBrowser_V1.Refresh2
 0001:000043D8       TWebBrowser_V1.Refresh2
 0001:0000442C       TWebBrowser_V1.Stop
 0001:0000447C       TWebBrowser.InitControlData
 0001:00004498       DoCreate
 0001:0000451C       TWebBrowser.CreateControl
 0001:0000453C       TWebBrowser.GetControlInterface
 0001:0000455C       TWebBrowser.Get_Application
 0001:000045B8       TWebBrowser.Get_Parent
 0001:00004614       TWebBrowser.Get_Container
 0001:00004670       TWebBrowser.Get_Document
 0001:000046CC       TWebBrowser.GoBack
 0001:0000471C       TWebBrowser.GoForward
 0001:0000476C       TWebBrowser.GoHome
 0001:000047BC       TWebBrowser.GoSearch
 0001:0000480C       TWebBrowser.Navigate
 0001:00004878       TWebBrowser.Navigate
 0001:000048E4       TWebBrowser.Navigate
 0001:00004950       TWebBrowser.Navigate
 0001:000049BC       TWebBrowser.Navigate
 0001:00004A24       TWebBrowser.Refresh
 0001:00004A74       TWebBrowser.Refresh2
 0001:00004ACC       TWebBrowser.Refresh2
 0001:00004B20       TWebBrowser.Stop
 0001:00004B70       TWebBrowser.Quit
 0001:00004BC4       TWebBrowser.ClientToWindow
 0001:00004C20       TWebBrowser.PutProperty
 0001:00004CA8       TWebBrowser.GetProperty
 0001:00004D0C       TWebBrowser.Navigate2
 0001:00004D7C       TWebBrowser.Navigate2
 0001:00004DEC       TWebBrowser.Navigate2
 0001:00004E5C       TWebBrowser.Navigate2
 0001:00004EC8       TWebBrowser.Navigate2
 0001:00004F34       TWebBrowser.QueryStatusWB
 0001:00004F9C       TWebBrowser.ExecWB
 0001:00005004       TWebBrowser.ExecWB
 0001:0000506C       TWebBrowser.ExecWB
 0001:000050D4       TWebBrowser.ShowBrowserBar
 0001:00005138       TWebBrowser.ShowBrowserBar
 0001:0000519C       TWebBrowser.ShowBrowserBar
 0001:00005200       CoInternetExplorer.Create
 0001:00005264       CoInternetExplorer.CreateRemote
 0001:000052E4       TInternetExplorer.InitServerData
 0001:000052F0       TInternetExplorer.Connect
 0001:00005368       TInternetExplorer.ConnectTo
 0001:000053CC       TInternetExplorer.Disconnect
 0001:000053F4       TInternetExplorer.GetDefaultInterface
 0001:0000541C       TInternetExplorer.Create
 0001:00005454       TInternetExplorer.Destroy
 0001:0000547C       TInternetExplorer.InvokeEvent
 0001:000057D8       TInternetExplorer.Get_Application
 0001:00005834       TInternetExplorer.Get_Parent
 0001:00005890       TInternetExplorer.Get_Container
 0001:000058EC       TInternetExplorer.Get_Document
 0001:00005948       TInternetExplorer.Get_TopLevelContainer
 0001:000059A8       TInternetExplorer.Get_Type_
 0001:00005A04       TInternetExplorer.Get_Left
 0001:00005A64       TInternetExplorer.Set_Left
 0001:00005AB8       TInternetExplorer.Get_Top
 0001:00005B18       TInternetExplorer.Set_Top
 0001:00005B6C       TInternetExplorer.Get_Width
 0001:00005BCC       TInternetExplorer.Set_Width
 0001:00005C20       TInternetExplorer.Get_Height
 0001:00005C80       TInternetExplorer.Set_Height
 0001:00005CD4       TInternetExplorer.Get_LocationName
 0001:00005D30       TInternetExplorer.Get_LocationURL
 0001:00005D8C       TInternetExplorer.Get_Busy
 0001:00005DEC       TInternetExplorer.Get_Name
 0001:00005E4C       TInternetExplorer.Get_HWND
 0001:00005EB0       TInternetExplorer.Get_FullName
 0001:00005F10       TInternetExplorer.Get_Path
 0001:00005F70       TInternetExplorer.Get_Visible
 0001:00005FD4       TInternetExplorer.Set_Visible
 0001:0000602C       TInternetExplorer.Get_StatusBar
 0001:00006090       TInternetExplorer.Set_StatusBar
 0001:000060E8       TInternetExplorer.Get_StatusText
 0001:00006148       TInternetExplorer.Set_StatusText
 0001:000061A0       TInternetExplorer.Get_ToolBar
 0001:00006204       TInternetExplorer.Set_ToolBar
 0001:0000625C       TInternetExplorer.Get_MenuBar
 0001:000062C0       TInternetExplorer.Set_MenuBar
 0001:00006318       TInternetExplorer.Get_FullScreen
 0001:0000637C       TInternetExplorer.Set_FullScreen
 0001:000063D4       TInternetExplorer.Get_ReadyState
 0001:00006438       TInternetExplorer.Get_Offline
 0001:0000649C       TInternetExplorer.Set_Offline
 0001:000064F4       TInternetExplorer.Get_Silent
 0001:00006558       TInternetExplorer.Set_Silent
 0001:000065B0       TInternetExplorer.Get_RegisterAsBrowser
 0001:00006614       TInternetExplorer.Set_RegisterAsBrowser
 0001:0000666C       TInternetExplorer.Get_RegisterAsDropTarget
 0001:000066D0       TInternetExplorer.Set_RegisterAsDropTarget
 0001:00006728       TInternetExplorer.Get_TheaterMode
 0001:0000678C       TInternetExplorer.Set_TheaterMode
 0001:000067E4       TInternetExplorer.Get_AddressBar
 0001:00006848       TInternetExplorer.Set_AddressBar
 0001:000068A0       TInternetExplorer.Get_Resizable
 0001:00006904       TInternetExplorer.Set_Resizable
 0001:0000695C       TInternetExplorer.GoBack
 0001:000069AC       TInternetExplorer.GoForward
 0001:000069FC       TInternetExplorer.GoHome
 0001:00006A4C       TInternetExplorer.GoSearch
 0001:00006A9C       TInternetExplorer.Navigate
 0001:00006B08       TInternetExplorer.Navigate
 0001:00006B74       TInternetExplorer.Navigate
 0001:00006BE0       TInternetExplorer.Navigate
 0001:00006C4C       TInternetExplorer.Navigate
 0001:00006CB4       TInternetExplorer.Refresh
 0001:00006D04       TInternetExplorer.Refresh2
 0001:00006D5C       TInternetExplorer.Refresh2
 0001:00006DB0       TInternetExplorer.Stop
 0001:00006E00       TInternetExplorer.Quit
 0001:00006E54       TInternetExplorer.ClientToWindow
 0001:00006EB0       TInternetExplorer.PutProperty
 0001:00006F38       TInternetExplorer.GetProperty
 0001:00006F9C       TInternetExplorer.Navigate2
 0001:0000700C       TInternetExplorer.Navigate2
 0001:0000707C       TInternetExplorer.Navigate2
 0001:000070EC       TInternetExplorer.Navigate2
 0001:00007158       TInternetExplorer.Navigate2
 0001:000071C4       TInternetExplorer.QueryStatusWB
 0001:0000722C       TInternetExplorer.ExecWB
 0001:00007294       TInternetExplorer.ExecWB
 0001:000072FC       TInternetExplorer.ExecWB
 0001:00007364       TInternetExplorer.ShowBrowserBar
 0001:000073C8       TInternetExplorer.ShowBrowserBar
 0001:0000742C       TInternetExplorer.ShowBrowserBar
 0001:00007490       CoShellBrowserWindow.Create
 0001:000074F4       CoShellBrowserWindow.CreateRemote
 0001:00007574       CoShellWindows.Create
 0001:000075D8       CoShellWindows.CreateRemote
 0001:00007658       TShellWindows.InitServerData
 0001:00007664       TShellWindows.Connect
 0001:000076D8       TShellWindows.ConnectTo
 0001:00007738       TShellWindows.Disconnect
 0001:00007758       TShellWindows.GetDefaultInterface
 0001:00007778       TShellWindows.Create
 0001:000077B0       TShellWindows.Destroy
 0001:000077D8       TShellWindows.InvokeEvent
 0001:00007828       TShellWindows.Get_Count
 0001:00007888       TShellWindows.Item
 0001:000078F4       TShellWindows.Item
 0001:00007980       TShellWindows._NewEnum
 0001:000079DC       TShellWindows.Register
 0001:00007A40       TShellWindows.RegisterPending
 0001:00007AA8       TShellWindows.Revoke
 0001:00007AFC       TShellWindows.OnNavigate
 0001:00007B58       TShellWindows.OnActivated
 0001:00007BB4       TShellWindows.FindWindow
 0001:00007C24       TShellWindows.OnCreated
 0001:00007C80       TShellWindows.ProcessAttachDetach
 0001:00007CD4       CoShellUIHelper.Create
 0001:00007D38       CoShellUIHelper.CreateRemote
 0001:00007DB8       TShellUIHelper.InitServerData
 0001:00007DC4       TShellUIHelper.Connect
 0001:00007E2C       TShellUIHelper.ConnectTo
 0001:00007E80       TShellUIHelper.Disconnect
 0001:00007E94       TShellUIHelper.GetDefaultInterface
 0001:00007EB4       TShellUIHelper.Create
 0001:00007EEC       TShellUIHelper.Destroy
 0001:00007F14       TShellUIHelper.ResetFirstBootMode
 0001:00007F64       TShellUIHelper.ResetSafeMode
 0001:00007FB4       TShellUIHelper.RefreshOfflineDesktop
 0001:00008004       TShellUIHelper.AddFavorite
 0001:00008060       TShellUIHelper.AddFavorite
 0001:000080BC       TShellUIHelper.AddChannel
 0001:00008110       TShellUIHelper.AddDesktopComponent
 0001:00008184       TShellUIHelper.AddDesktopComponent
 0001:000081F8       TShellUIHelper.AddDesktopComponent
 0001:00008268       TShellUIHelper.AddDesktopComponent
 0001:000082D8       TShellUIHelper.AddDesktopComponent
 0001:00008344       TShellUIHelper.IsSubscribed
 0001:000083AC       TShellUIHelper.NavigateAndFind
 0001:0000840C       TShellUIHelper.ImportExportFavorites
 0001:00008468       TShellUIHelper.AutoCompleteSaveForm
 0001:000084C0       TShellUIHelper.AutoCompleteSaveForm
 0001:00008514       TShellUIHelper.AutoScan
 0001:00008574       TShellUIHelper.AutoScan
 0001:000085D4       TShellUIHelper.AutoCompleteAttach
 0001:0000862C       TShellUIHelper.AutoCompleteAttach
 0001:00008680       TShellUIHelper.ShowBrowserUI
 0001:000086E4       CoShellFavoritesNameSpace.Create
 0001:00008748       CoShellFavoritesNameSpace.CreateRemote
 0001:000087C8       TShellFavoritesNameSpace.InitServerData
 0001:000087D4       TShellFavoritesNameSpace.Connect
 0001:00008848       TShellFavoritesNameSpace.ConnectTo
 0001:000088A8       TShellFavoritesNameSpace.Disconnect
 0001:000088C8       TShellFavoritesNameSpace.GetDefaultInterface
 0001:000088E8       TShellFavoritesNameSpace.Create
 0001:00008920       TShellFavoritesNameSpace.Destroy
 0001:00008948       TShellFavoritesNameSpace.InvokeEvent
 0001:000089A8       TShellFavoritesNameSpace.Get_FOfflinePackInstalled
 0001:00008A08       TShellFavoritesNameSpace.MoveSelectionUp
 0001:00008A58       TShellFavoritesNameSpace.MoveSelectionDown
 0001:00008AA8       TShellFavoritesNameSpace.ResetSort
 0001:00008AF8       TShellFavoritesNameSpace.NewFolder
 0001:00008B48       TShellFavoritesNameSpace.Synchronize
 0001:00008B98       TShellFavoritesNameSpace.Import
 0001:00008BE8       TShellFavoritesNameSpace.Export
 0001:00008C38       TShellFavoritesNameSpace.InvokeContextMenuCommand
 0001:00008C8C       TShellFavoritesNameSpace.MoveSelectionTo
 0001:00008CDC       TShellFavoritesNameSpace.CreateSubscriptionForSelection
 0001:00008D3C       TShellFavoritesNameSpace.DeleteSubscriptionForSelection
 0001:00008D9C       TShellFavoritesNameSpace.SetRoot
 0001:00008DF0       CoCScriptErrorList.Create
 0001:00008E54       CoCScriptErrorList.CreateRemote
 0001:00008ED4       CoSearchAssistantOC.Create
 0001:00008F38       CoSearchAssistantOC.CreateRemote
 0001:00008FB8       Finalization
 0001:00008FE8       SHDocVw
 0001:000137B8       CoHTMLStyle.Create
 0001:0001381C       CoHTMLStyle.CreateRemote
 0001:0001389C       CoHTMLRuleStyle.Create
 0001:00013900       CoHTMLRuleStyle.CreateRemote
 0001:00013980       CoHTMLCurrentStyle.Create
 0001:000139E4       CoHTMLCurrentStyle.CreateRemote
 0001:00013A64       CoHTMLFiltersCollection.Create
 0001:00013AC8       CoHTMLFiltersCollection.CreateRemote
 0001:00013B48       CoHTMLDOMAttribute.Create
 0001:00013BAC       CoHTMLDOMAttribute.CreateRemote
 0001:00013C2C       CoHTMLDOMTextNode.Create
 0001:00013C90       CoHTMLDOMTextNode.CreateRemote
 0001:00013D10       CoHTMLAttributeCollection.Create
 0001:00013D74       CoHTMLAttributeCollection.CreateRemote
 0001:00013DF4       CoDOMChildrenCollection.Create
 0001:00013E58       CoDOMChildrenCollection.CreateRemote
 0001:00013ED8       CoHTCDefaultDispatch.Create
 0001:00013F3C       CoHTCDefaultDispatch.CreateRemote
 0001:00013FBC       CoHTCPropertyBehavior.Create
 0001:00014020       CoHTCPropertyBehavior.CreateRemote
 0001:000140A0       CoHTCMethodBehavior.Create
 0001:00014104       CoHTCMethodBehavior.CreateRemote
 0001:00014184       CoHTCEventBehavior.Create
 0001:000141E8       CoHTCEventBehavior.CreateRemote
 0001:00014268       CoHTCAttachBehavior.Create
 0001:000142CC       CoHTCAttachBehavior.CreateRemote
 0001:0001434C       CoHTCDescBehavior.Create
 0001:000143B0       CoHTCDescBehavior.CreateRemote
 0001:00014430       CoHTMLUrnCollection.Create
 0001:00014494       CoHTMLUrnCollection.CreateRemote
 0001:00014514       CoHTMLGenericElement.Create
 0001:00014578       CoHTMLGenericElement.CreateRemote
 0001:000145F8       CoHTMLStyleSheetRule.Create
 0001:0001465C       CoHTMLStyleSheetRule.CreateRemote
 0001:000146DC       CoHTMLStyleSheetRulesCollection.Create
 0001:00014740       CoHTMLStyleSheetRulesCollection.CreateRemote
 0001:000147C0       CoHTMLStyleSheet.Create
 0001:00014824       CoHTMLStyleSheet.CreateRemote
 0001:000148A4       CoHTMLStyleSheetsCollection.Create
 0001:00014908       CoHTMLStyleSheetsCollection.CreateRemote
 0001:00014988       CoHTMLLinkElement.Create
 0001:000149EC       CoHTMLLinkElement.CreateRemote
 0001:00014A6C       CoHTMLFormElement.Create
 0001:00014AD0       CoHTMLFormElement.CreateRemote
 0001:00014B50       CoHTMLTextElement.Create
 0001:00014BB4       CoHTMLTextElement.CreateRemote
 0001:00014C34       CoHTMLImg.Create
 0001:00014C98       CoHTMLImg.CreateRemote
 0001:00014D18       CoHTMLImageElementFactory.Create
 0001:00014D7C       CoHTMLImageElementFactory.CreateRemote
 0001:00014DFC       CoHTMLBody.Create
 0001:00014E60       CoHTMLBody.CreateRemote
 0001:00014EE0       CoHTMLFontElement.Create
 0001:00014F44       CoHTMLFontElement.CreateRemote
 0001:00014FC4       CoHTMLAnchorElement.Create
 0001:00015028       CoHTMLAnchorElement.CreateRemote
 0001:000150A8       CoHTMLLabelElement.Create
 0001:0001510C       CoHTMLLabelElement.CreateRemote
 0001:0001518C       CoHTMLListElement.Create
 0001:000151F0       CoHTMLListElement.CreateRemote
 0001:00015270       CoHTMLUListElement.Create
 0001:000152D4       CoHTMLUListElement.CreateRemote
 0001:00015354       CoHTMLOListElement.Create
 0001:000153B8       CoHTMLOListElement.CreateRemote
 0001:00015438       CoHTMLLIElement.Create
 0001:0001549C       CoHTMLLIElement.CreateRemote
 0001:0001551C       CoHTMLBlockElement.Create
 0001:00015580       CoHTMLBlockElement.CreateRemote
 0001:00015600       CoHTMLDivElement.Create
 0001:00015664       CoHTMLDivElement.CreateRemote
 0001:000156E4       CoHTMLDDElement.Create
 0001:00015748       CoHTMLDDElement.CreateRemote
 0001:000157C8       CoHTMLDTElement.Create
 0001:0001582C       CoHTMLDTElement.CreateRemote
 0001:000158AC       CoHTMLBRElement.Create
 0001:00015910       CoHTMLBRElement.CreateRemote
 0001:00015990       CoHTMLDListElement.Create
 0001:000159F4       CoHTMLDListElement.CreateRemote
 0001:00015A74       CoHTMLHRElement.Create
 0001:00015AD8       CoHTMLHRElement.CreateRemote
 0001:00015B58       CoHTMLParaElement.Create
 0001:00015BBC       CoHTMLParaElement.CreateRemote
 0001:00015C3C       CoHTMLElementCollection.Create
 0001:00015CA0       CoHTMLElementCollection.CreateRemote
 0001:00015D20       CoHTMLHeaderElement.Create
 0001:00015D84       CoHTMLHeaderElement.CreateRemote
 0001:00015E04       CoHTMLSelectElement.Create
 0001:00015E68       CoHTMLSelectElement.CreateRemote
 0001:00015EE8       CoHTMLOptionElement.Create
 0001:00015F4C       CoHTMLOptionElement.CreateRemote
 0001:00015FCC       CoHTMLOptionElementFactory.Create
 0001:00016030       CoHTMLOptionElementFactory.CreateRemote
 0001:000160B0       CoHTMLInputElement.Create
 0001:00016114       CoHTMLInputElement.CreateRemote
 0001:00016194       CoHTMLTextAreaElement.Create
 0001:000161F8       CoHTMLTextAreaElement.CreateRemote
 0001:00016278       CoHTMLRichtextElement.Create
 0001:000162DC       CoHTMLRichtextElement.CreateRemote
 0001:0001635C       CoHTMLButtonElement.Create
 0001:000163C0       CoHTMLButtonElement.CreateRemote
 0001:00016440       CoHTMLMarqueeElement.Create
 0001:000164A4       CoHTMLMarqueeElement.CreateRemote
 0001:00016524       CoHTMLHtmlElement.Create
 0001:00016588       CoHTMLHtmlElement.CreateRemote
 0001:00016608       CoHTMLHeadElement.Create
 0001:0001666C       CoHTMLHeadElement.CreateRemote
 0001:000166EC       CoHTMLTitleElement.Create
 0001:00016750       CoHTMLTitleElement.CreateRemote
 0001:000167D0       CoHTMLMetaElement.Create
 0001:00016834       CoHTMLMetaElement.CreateRemote
 0001:000168B4       CoHTMLBaseElement.Create
 0001:00016918       CoHTMLBaseElement.CreateRemote
 0001:00016998       CoHTMLIsIndexElement.Create
 0001:000169FC       CoHTMLIsIndexElement.CreateRemote
 0001:00016A7C       CoHTMLNextIdElement.Create
 0001:00016AE0       CoHTMLNextIdElement.CreateRemote
 0001:00016B60       CoHTMLBaseFontElement.Create
 0001:00016BC4       CoHTMLBaseFontElement.CreateRemote
 0001:00016C44       CoHTMLUnknownElement.Create
 0001:00016CA8       CoHTMLUnknownElement.CreateRemote
 0001:00016D28       CoHTMLHistory.Create
 0001:00016D8C       CoHTMLHistory.CreateRemote
 0001:00016E0C       CoCMimeTypes.Create
 0001:00016E70       CoCMimeTypes.CreateRemote
 0001:00016EF0       CoCPlugins.Create
 0001:00016F54       CoCPlugins.CreateRemote
 0001:00016FD4       CoCOpsProfile.Create
 0001:00017038       CoCOpsProfile.CreateRemote
 0001:000170B8       CoHTMLNavigator.Create
 0001:0001711C       CoHTMLNavigator.CreateRemote
 0001:0001719C       CoHTMLLocation.Create
 0001:00017200       CoHTMLLocation.CreateRemote
 0001:00017280       CoCEventObj.Create
 0001:000172E4       CoCEventObj.CreateRemote
 0001:00017364       CoHTMLScreen.Create
 0001:000173C8       CoHTMLScreen.CreateRemote
 0001:00017448       CoHTMLWindow2.Create
 0001:000174AC       CoHTMLWindow2.CreateRemote
 0001:0001752C       CoHTMLWindowProxy.Create
 0001:00017590       CoHTMLWindowProxy.CreateRemote
 0001:00017610       CoHTMLDocument.Create
 0001:00017674       CoHTMLDocument.CreateRemote
 0001:000176F4       CoHTMLDocumentFragment.Create
 0001:00017758       CoHTMLDocumentFragment.CreateRemote
 0001:000177D8       TScriptlet.InitControlData
 0001:000177F4       DoCreate
 0001:00017878       TScriptlet.CreateControl
 0001:00017898       TScriptlet.GetControlInterface
 0001:000178B8       TScriptlet.Get_event
 0001:00017914       TScriptlet.AboutBox
 0001:00017964       CoHTMLEmbed.Create
 0001:000179C8       CoHTMLEmbed.CreateRemote
 0001:00017A48       CoHTMLAreasCollection.Create
 0001:00017AAC       CoHTMLAreasCollection.CreateRemote
 0001:00017B2C       CoHTMLMapElement.Create
 0001:00017B90       CoHTMLMapElement.CreateRemote
 0001:00017C10       CoHTMLAreaElement.Create
 0001:00017C74       CoHTMLAreaElement.CreateRemote
 0001:00017CF4       CoHTMLTableCaption.Create
 0001:00017D58       CoHTMLTableCaption.CreateRemote
 0001:00017DD8       CoHTMLCommentElement.Create
 0001:00017E3C       CoHTMLCommentElement.CreateRemote
 0001:00017EBC       CoHTMLPhraseElement.Create
 0001:00017F20       CoHTMLPhraseElement.CreateRemote
 0001:00017FA0       CoHTMLSpanElement.Create
 0001:00018004       CoHTMLSpanElement.CreateRemote
 0001:00018084       CoHTMLTable.Create
 0001:000180E8       CoHTMLTable.CreateRemote
 0001:00018168       CoHTMLTableCol.Create
 0001:000181CC       CoHTMLTableCol.CreateRemote
 0001:0001824C       CoHTMLTableSection.Create
 0001:000182B0       CoHTMLTableSection.CreateRemote
 0001:00018330       CoHTMLTableRow.Create
 0001:00018394       CoHTMLTableRow.CreateRemote
 0001:00018414       CoHTMLTableCell.Create
 0001:00018478       CoHTMLTableCell.CreateRemote
 0001:000184F8       CoHTMLScriptElement.Create
 0001:0001855C       CoHTMLScriptElement.CreateRemote
 0001:000185DC       CoHTMLNoShowElement.Create
 0001:00018640       CoHTMLNoShowElement.CreateRemote
 0001:000186C0       CoHTMLObjectElement.Create
 0001:00018724       CoHTMLObjectElement.CreateRemote
 0001:000187A4       CoHTMLFrameBase.Create
 0001:00018808       CoHTMLFrameBase.CreateRemote
 0001:00018888       CoHTMLFrameElement.Create
 0001:000188EC       CoHTMLFrameElement.CreateRemote
 0001:0001896C       CoHTMLIFrame.Create
 0001:000189D0       CoHTMLIFrame.CreateRemote
 0001:00018A50       CoHTMLDivPosition.Create
 0001:00018AB4       CoHTMLDivPosition.CreateRemote
 0001:00018B34       CoHTMLFieldSetElement.Create
 0001:00018B98       CoHTMLFieldSetElement.CreateRemote
 0001:00018C18       CoHTMLLegendElement.Create
 0001:00018C7C       CoHTMLLegendElement.CreateRemote
 0001:00018CFC       CoHTMLSpanFlow.Create
 0001:00018D60       CoHTMLSpanFlow.CreateRemote
 0001:00018DE0       CoHTMLFrameSetSite.Create
 0001:00018E44       CoHTMLFrameSetSite.CreateRemote
 0001:00018EC4       CoHTMLBGsound.Create
 0001:00018F28       CoHTMLBGsound.CreateRemote
 0001:00018FA8       CoHTMLStyleElement.Create
 0001:0001900C       CoHTMLStyleElement.CreateRemote
 0001:0001908C       CoHTMLStyleFontFace.Create
 0001:000190F0       CoHTMLStyleFontFace.CreateRemote
 0001:00019170       CoThreadDialogProcParam.Create
 0001:000191D4       CoThreadDialogProcParam.CreateRemote
 0001:00019254       CoHTMLDialog.Create
 0001:000192B8       CoHTMLDialog.CreateRemote
 0001:00019338       CoHTMLAppBehavior.Create
 0001:0001939C       CoHTMLAppBehavior.CreateRemote
 0001:0001941C       CoOldHTMLDocument.Create
 0001:00019480       CoOldHTMLDocument.CreateRemote
 0001:00019500       CoOldHTMLFormElement.Create
 0001:00019564       CoOldHTMLFormElement.CreateRemote
 0001:000195E4       CoHTMLInputButtonElement.Create
 0001:00019648       CoHTMLInputButtonElement.CreateRemote
 0001:000196C8       CoHTMLInputTextElement.Create
 0001:0001972C       CoHTMLInputTextElement.CreateRemote
 0001:000197AC       CoHTMLInputFileElement.Create
 0001:00019810       CoHTMLInputFileElement.CreateRemote
 0001:00019890       CoHTMLOptionButtonElement.Create
 0001:000198F4       CoHTMLOptionButtonElement.CreateRemote
 0001:00019974       CohtmlInputImage.Create
 0001:000199D8       CohtmlInputImage.CreateRemote
 0001:00019A58       Finalization
 0001:00019A88       MSHTML
 0001:00019CB0       @GetPackageInfoTable
 0001:00019CB8       @PackageLoad
 0001:00019CC4       @PackageUnload
 0001:00019CD0       vclie
 0002:00000000       TlsIndex
 0002:00000004       Module
 0002:0000001C       TlsProc
 0002:0000002C       LIBID_SHDocVw
 0002:0000003C       IID_IWebBrowser
 0002:0000004C       DIID_DWebBrowserEvents
 0002:0000005C       IID_IWebBrowserApp
 0002:0000006C       IID_IWebBrowser2
 0002:0000007C       DIID_DWebBrowserEvents2
 0002:0000008C       CLASS_WebBrowser_V1
 0002:0000009C       CLASS_WebBrowser
 0002:000000AC       CLASS_InternetExplorer
 0002:000000BC       CLASS_ShellBrowserWindow
 0002:000000CC       DIID_DShellWindowsEvents
 0002:000000DC       IID_IShellWindows
 0002:000000EC       CLASS_ShellWindows
 0002:000000FC       IID_IShellUIHelper
 0002:0000010C       CLASS_ShellUIHelper
 0002:0000011C       DIID__ShellFavoritesNameSpaceEvents
 0002:0000012C       IID_IShellFavoritesNameSpace
 0002:0000013C       CLASS_ShellFavoritesNameSpace
 0002:0000014C       IID_IScriptErrorList
 0002:0000015C       CLASS_CScriptErrorList
 0002:0000016C       IID_ISearch
 0002:0000017C       IID_ISearches
 0002:0000018C       IID_ISearchAssistantOC
 0002:0000019C       DIID__SearchAssistantEvents
 0002:000001AC       CLASS_SearchAssistantOC
 0002:000001BC       CEventDispIDs
 0002:00000200       CControlData
 0002:00000254       CEventDispIDs
 0002:0000029C       CControlData
 0002:000002F0       CServerData
 0002:0000032C       CServerData
 0002:00000368       CServerData
 0002:000003A4       CServerData
 0002:000003E0       LIBID_MSHTML
 0002:000003F0       IID_IHTMLEventObj
 0002:00000400       IID_IHTMLElement
 0002:00000410       IID_IHTMLStyle
 0002:00000420       IID_IHTMLFiltersCollection
 0002:00000430       IID_IElementBehaviorSite
 0002:00000440       IID_IElementBehavior
 0002:00000450       IID_IElementBehaviorFactory
 0002:00000460       IID_IElementBehaviorSiteOM
 0002:00000470       IID_IElementBehaviorRender
 0002:00000480       IID_IElementBehaviorSiteRender
 0002:00000490       IID_IHTMLStyle2
 0002:000004A0       IID_IHTMLRuleStyle
 0002:000004B0       IID_IHTMLRuleStyle2
 0002:000004C0       DIID_DispHTMLStyle
 0002:000004D0       CLASS_HTMLStyle
 0002:000004E0       DIID_DispHTMLRuleStyle
 0002:000004F0       CLASS_HTMLRuleStyle
 0002:00000500       IID_IHTMLCurrentStyle
 0002:00000510       DIID_DispHTMLCurrentStyle
 0002:00000520       CLASS_HTMLCurrentStyle
 0002:00000530       CLASS_HTMLFiltersCollection
 0002:00000540       IID_IHTMLRect
 0002:00000550       IID_IHTMLRectCollection
 0002:00000560       IID_IHTMLDOMNode
 0002:00000570       IID_IHTMLDOMAttribute
 0002:00000580       IID_IHTMLDOMTextNode
 0002:00000590       DIID_DispHTMLDOMAttribute
 0002:000005A0       CLASS_HTMLDOMAttribute
 0002:000005B0       DIID_DispHTMLDOMTextNode
 0002:000005C0       CLASS_HTMLDOMTextNode
 0002:000005D0       IID_IHTMLAttributeCollection
 0002:000005E0       IID_IHTMLDOMChildrenCollection
 0002:000005F0       DIID_DispHTMLAttributeCollection
 0002:00000600       CLASS_HTMLAttributeCollection
 0002:00000610       DIID_DispDOMChildrenCollection
 0002:00000620       CLASS_DOMChildrenCollection
 0002:00000630       DIID_HTMLElementEvents2
 0002:00000640       DIID_HTMLElementEvents
 0002:00000650       IID_IHTMLElementCollection
 0002:00000660       IID_IHTMLElement2
 0002:00000670       IID_IHTMLUniqueName
 0002:00000680       IID_IHTMLDatabinding
 0002:00000690       IID_IHTCDefaultDispatch
 0002:000006A0       IID_IHTCPropertyBehavior
 0002:000006B0       IID_IHTCMethodBehavior
 0002:000006C0       IID_IHTCEventBehavior
 0002:000006D0       IID_IHTCAttachBehavior
 0002:000006E0       IID_IHTCDescBehavior
 0002:000006F0       DIID_DispHTCDefaultDispatch
 0002:00000700       CLASS_HTCDefaultDispatch
 0002:00000710       DIID_DispHTCPropertyBehavior
 0002:00000720       CLASS_HTCPropertyBehavior
 0002:00000730       DIID_DispHTCMethodBehavior
 0002:00000740       CLASS_HTCMethodBehavior
 0002:00000750       DIID_DispHTCEventBehavior
 0002:00000760       CLASS_HTCEventBehavior
 0002:00000770       DIID_DispHTCAttachBehavior
 0002:00000780       CLASS_HTCAttachBehavior
 0002:00000790       DIID_DispHTCDescBehavior
 0002:000007A0       CLASS_HTCDescBehavior
 0002:000007B0       IID_IHTMLUrnCollection
 0002:000007C0       CLASS_HTMLUrnCollection
 0002:000007D0       IID_IHTMLGenericElement
 0002:000007E0       DIID_DispHTMLGenericElement
 0002:000007F0       CLASS_HTMLGenericElement
 0002:00000800       IID_IHTMLStyleSheetRule
 0002:00000810       IID_IHTMLStyleSheetRulesCollection
 0002:00000820       CLASS_HTMLStyleSheetRule
 0002:00000830       CLASS_HTMLStyleSheetRulesCollection
 0002:00000840       IID_IHTMLStyleSheetsCollection
 0002:00000850       IID_IHTMLStyleSheet
 0002:00000860       CLASS_HTMLStyleSheet
 0002:00000870       CLASS_HTMLStyleSheetsCollection
 0002:00000880       DIID_HTMLLinkElementEvents2
 0002:00000890       DIID_HTMLLinkElementEvents
 0002:000008A0       IID_IHTMLLinkElement
 0002:000008B0       IID_IHTMLLinkElement2
 0002:000008C0       DIID_DispHTMLLinkElement
 0002:000008D0       CLASS_HTMLLinkElement
 0002:000008E0       IID_IHTMLTxtRange
 0002:000008F0       IID_IHTMLTextRangeMetrics
 0002:00000900       IID_IHTMLTextRangeMetrics2
 0002:00000910       DIID_HTMLFormElementEvents2
 0002:00000920       DIID_HTMLFormElementEvents
 0002:00000930       IID_IHTMLFormElement
 0002:00000940       IID_IHTMLFormElement2
 0002:00000950       DIID_DispHTMLFormElement
 0002:00000960       CLASS_HTMLFormElement
 0002:00000970       DIID_HTMLControlElementEvents2
 0002:00000980       DIID_HTMLControlElementEvents
 0002:00000990       IID_IHTMLControlElement
 0002:000009A0       IID_IHTMLTextElement
 0002:000009B0       DIID_DispHTMLTextElement
 0002:000009C0       CLASS_HTMLTextElement
 0002:000009D0       DIID_HTMLTextContainerEvents2
 0002:000009E0       DIID_HTMLTextContainerEvents
 0002:000009F0       IID_IHTMLTextContainer
 0002:00000A00       IID_IHTMLControlRange
 0002:00000A10       DIID_HTMLImgEvents2
 0002:00000A20       DIID_HTMLImgEvents
 0002:00000A30       IID_IHTMLImgElement
 0002:00000A40       IID_IHTMLImageElementFactory
 0002:00000A50       DIID_DispHTMLImg
 0002:00000A60       CLASS_HTMLImg
 0002:00000A70       CLASS_HTMLImageElementFactory
 0002:00000A80       IID_IHTMLBodyElement
 0002:00000A90       IID_IHTMLBodyElement2
 0002:00000AA0       DIID_DispHTMLBody
 0002:00000AB0       CLASS_HTMLBody
 0002:00000AC0       IID_IHTMLFontElement
 0002:00000AD0       DIID_DispHTMLFontElement
 0002:00000AE0       CLASS_HTMLFontElement
 0002:00000AF0       DIID_HTMLAnchorEvents2
 0002:00000B00       DIID_HTMLAnchorEvents
 0002:00000B10       IID_IHTMLAnchorElement
 0002:00000B20       DIID_DispHTMLAnchorElement
 0002:00000B30       CLASS_HTMLAnchorElement
 0002:00000B40       DIID_HTMLLabelEvents2
 0002:00000B50       DIID_HTMLLabelEvents
 0002:00000B60       IID_IHTMLLabelElement
 0002:00000B70       DIID_DispHTMLLabelElement
 0002:00000B80       CLASS_HTMLLabelElement
 0002:00000B90       IID_IHTMLListElement
 0002:00000BA0       DIID_DispHTMLListElement
 0002:00000BB0       CLASS_HTMLListElement
 0002:00000BC0       IID_IHTMLUListElement
 0002:00000BD0       DIID_DispHTMLUListElement
 0002:00000BE0       CLASS_HTMLUListElement
 0002:00000BF0       IID_IHTMLOListElement
 0002:00000C00       DIID_DispHTMLOListElement
 0002:00000C10       CLASS_HTMLOListElement
 0002:00000C20       IID_IHTMLLIElement
 0002:00000C30       DIID_DispHTMLLIElement
 0002:00000C40       CLASS_HTMLLIElement
 0002:00000C50       IID_IHTMLBlockElement
 0002:00000C60       DIID_DispHTMLBlockElement
 0002:00000C70       CLASS_HTMLBlockElement
 0002:00000C80       IID_IHTMLDivElement
 0002:00000C90       DIID_DispHTMLDivElement
 0002:00000CA0       CLASS_HTMLDivElement
 0002:00000CB0       IID_IHTMLDDElement
 0002:00000CC0       DIID_DispHTMLDDElement
 0002:00000CD0       CLASS_HTMLDDElement
 0002:00000CE0       IID_IHTMLDTElement
 0002:00000CF0       DIID_DispHTMLDTElement
 0002:00000D00       CLASS_HTMLDTElement
 0002:00000D10       IID_IHTMLBRElement
 0002:00000D20       DIID_DispHTMLBRElement
 0002:00000D30       CLASS_HTMLBRElement
 0002:00000D40       IID_IHTMLDListElement
 0002:00000D50       DIID_DispHTMLDListElement
 0002:00000D60       CLASS_HTMLDListElement
 0002:00000D70       IID_IHTMLHRElement
 0002:00000D80       DIID_DispHTMLHRElement
 0002:00000D90       CLASS_HTMLHRElement
 0002:00000DA0       IID_IHTMLParaElement
 0002:00000DB0       DIID_DispHTMLParaElement
 0002:00000DC0       CLASS_HTMLParaElement
 0002:00000DD0       IID_IHTMLElementCollection2
 0002:00000DE0       DIID_DispHTMLElementCollection
 0002:00000DF0       CLASS_HTMLElementCollection
 0002:00000E00       IID_IHTMLHeaderElement
 0002:00000E10       DIID_DispHTMLHeaderElement
 0002:00000E20       CLASS_HTMLHeaderElement
 0002:00000E30       DIID_HTMLSelectElementEvents2
 0002:00000E40       DIID_HTMLSelectElementEvents
 0002:00000E50       IID_IHTMLSelectElement
 0002:00000E60       IID_IHTMLSelectElement2
 0002:00000E70       DIID_DispHTMLSelectElement
 0002:00000E80       CLASS_HTMLSelectElement
 0002:00000E90       IID_IHTMLSelectionObject
 0002:00000EA0       IID_IHTMLOptionElement
 0002:00000EB0       IID_IHTMLOptionElementFactory
 0002:00000EC0       DIID_DispHTMLOptionElement
 0002:00000ED0       CLASS_HTMLOptionElement
 0002:00000EE0       CLASS_HTMLOptionElementFactory
 0002:00000EF0       DIID_HTMLButtonElementEvents2
 0002:00000F00       DIID_HTMLButtonElementEvents
 0002:00000F10       DIID_HTMLInputTextElementEvents2
 0002:00000F20       DIID_HTMLOptionButtonElementEvents2
 0002:00000F30       DIID_HTMLInputFileElementEvents2
 0002:00000F40       DIID_HTMLInputImageEvents2
 0002:00000F50       DIID_HTMLInputTextElementEvents
 0002:00000F60       DIID_HTMLOptionButtonElementEvents
 0002:00000F70       DIID_HTMLInputFileElementEvents
 0002:00000F80       DIID_HTMLInputImageEvents
 0002:00000F90       IID_IHTMLInputElement
 0002:00000FA0       IID_IHTMLInputButtonElement
 0002:00000FB0       IID_IHTMLInputHiddenElement
 0002:00000FC0       IID_IHTMLInputTextElement
 0002:00000FD0       IID_IHTMLInputFileElement
 0002:00000FE0       IID_IHTMLOptionButtonElement
 0002:00000FF0       IID_IHTMLInputImage
 0002:00001000       DIID_DispHTMLInputElement
 0002:00001010       CLASS_HTMLInputElement
 0002:00001020       IID_IHTMLTextAreaElement
 0002:00001030       DIID_DispHTMLTextAreaElement
 0002:00001040       CLASS_HTMLTextAreaElement
 0002:00001050       DIID_DispHTMLRichtextElement
 0002:00001060       CLASS_HTMLRichtextElement
 0002:00001070       IID_IHTMLButtonElement
 0002:00001080       DIID_DispHTMLButtonElement
 0002:00001090       CLASS_HTMLButtonElement
 0002:000010A0       DIID_HTMLMarqueeElementEvents2
 0002:000010B0       DIID_HTMLMarqueeElementEvents
 0002:000010C0       IID_IHTMLMarqueeElement
 0002:000010D0       DIID_DispHTMLMarqueeElement
 0002:000010E0       CLASS_HTMLMarqueeElement
 0002:000010F0       IID_IHTMLTitleElement
 0002:00001100       IID_IHTMLMetaElement
 0002:00001110       IID_IHTMLBaseElement
 0002:00001120       IID_IHTMLIsIndexElement
 0002:00001130       IID_IHTMLNextIdElement
 0002:00001140       DIID_DispHTMLHtmlElement
 0002:00001150       CLASS_HTMLHtmlElement
 0002:00001160       DIID_DispHTMLHeadElement
 0002:00001170       CLASS_HTMLHeadElement
 0002:00001180       DIID_DispHTMLTitleElement
 0002:00001190       CLASS_HTMLTitleElement
 0002:000011A0       DIID_DispHTMLMetaElement
 0002:000011B0       CLASS_HTMLMetaElement
 0002:000011C0       DIID_DispHTMLBaseElement
 0002:000011D0       CLASS_HTMLBaseElement
 0002:000011E0       DIID_DispHTMLIsIndexElement
 0002:000011F0       CLASS_HTMLIsIndexElement
 0002:00001200       DIID_DispHTMLNextIdElement
 0002:00001210       CLASS_HTMLNextIdElement
 0002:00001220       IID_IHTMLBaseFontElement
 0002:00001230       DIID_DispHTMLBaseFontElement
 0002:00001240       CLASS_HTMLBaseFontElement
 0002:00001250       IID_IHTMLUnknownElement
 0002:00001260       DIID_DispHTMLUnknownElement
 0002:00001270       CLASS_HTMLUnknownElement
 0002:00001280       IID_IOmHistory
 0002:00001290       IID_IHTMLMimeTypesCollection
 0002:000012A0       IID_IHTMLPluginsCollection
 0002:000012B0       IID_IHTMLOpsProfile
 0002:000012C0       IID_IOmNavigator
 0002:000012D0       IID_IHTMLLocation
 0002:000012E0       CLASS_HTMLHistory
 0002:000012F0       CLASS_CMimeTypes
 0002:00001300       CLASS_CPlugins
 0002:00001310       CLASS_COpsProfile
 0002:00001320       CLASS_HTMLNavigator
 0002:00001330       CLASS_HTMLLocation
 0002:00001340       IID_IHTMLBookmarkCollection
 0002:00001350       IID_IHTMLDataTransfer
 0002:00001360       IID_IHTMLEventObj2
 0002:00001370       DIID_DispCEventObj
 0002:00001380       CLASS_CEventObj
 0002:00001390       DIID_HTMLWindowEvents2
 0002:000013A0       DIID_HTMLWindowEvents
 0002:000013B0       IID_IHTMLDocument
 0002:000013C0       IID_IHTMLDocument2
 0002:000013D0       IID_IHTMLFramesCollection2
 0002:000013E0       IID_IHTMLWindow2
 0002:000013F0       IID_IHTMLScreen
 0002:00001400       IID_IHTMLWindow3
 0002:00001410       CLASS_HTMLScreen
 0002:00001420       DIID_DispHTMLWindow2
 0002:00001430       CLASS_HTMLWindow2
 0002:00001440       DIID_DispHTMLWindowProxy
 0002:00001450       CLASS_HTMLWindowProxy
 0002:00001460       DIID_HTMLDocumentEvents2
 0002:00001470       DIID_HTMLDocumentEvents
 0002:00001480       IID_IHTMLDocument3
 0002:00001490       DIID_DispHTMLDocument
 0002:000014A0       CLASS_HTMLDocument
 0002:000014B0       IID_IHTMLDocumentFragment
 0002:000014C0       DIID_DispHTMLDocumentFragment
 0002:000014D0       CLASS_HTMLDocumentFragment
 0002:000014E0       DIID_DWebBridgeEvents
 0002:000014F0       IID_IWebBridge
 0002:00001500       IID_IWBScriptControl
 0002:00001510       CLASS_Scriptlet
 0002:00001520       IID_IHTMLEmbedElement
 0002:00001530       DIID_DispHTMLEmbed
 0002:00001540       CLASS_HTMLEmbed
 0002:00001550       DIID_HTMLMapEvents2
 0002:00001560       DIID_HTMLMapEvents
 0002:00001570       IID_IHTMLAreasCollection
 0002:00001580       IID_IHTMLAreasCollection2
 0002:00001590       IID_IHTMLMapElement
 0002:000015A0       DIID_DispHTMLAreasCollection
 0002:000015B0       CLASS_HTMLAreasCollection
 0002:000015C0       DIID_DispHTMLMapElement
 0002:000015D0       CLASS_HTMLMapElement
 0002:000015E0       DIID_HTMLAreaEvents2
 0002:000015F0       DIID_HTMLAreaEvents
 0002:00001600       IID_IHTMLAreaElement
 0002:00001610       DIID_DispHTMLAreaElement
 0002:00001620       CLASS_HTMLAreaElement
 0002:00001630       IID_IHTMLTableCaption
 0002:00001640       DIID_DispHTMLTableCaption
 0002:00001650       CLASS_HTMLTableCaption
 0002:00001660       IID_IHTMLCommentElement
 0002:00001670       DIID_DispHTMLCommentElement
 0002:00001680       CLASS_HTMLCommentElement
 0002:00001690       IID_IHTMLPhraseElement
 0002:000016A0       IID_IHTMLSpanElement
 0002:000016B0       DIID_DispHTMLPhraseElement
 0002:000016C0       CLASS_HTMLPhraseElement
 0002:000016D0       DIID_DispHTMLSpanElement
 0002:000016E0       CLASS_HTMLSpanElement
 0002:000016F0       DIID_HTMLTableEvents2
 0002:00001700       DIID_HTMLTableEvents
 0002:00001710       IID_IHTMLTableSection
 0002:00001720       IID_IHTMLTable
 0002:00001730       IID_IHTMLTable2
 0002:00001740       IID_IHTMLTableCol
 0002:00001750       IID_IHTMLTableSection2
 0002:00001760       IID_IHTMLTableRow
 0002:00001770       IID_IHTMLTableRow2
 0002:00001780       IID_IHTMLTableRowMetrics
 0002:00001790       IID_IHTMLTableCell
 0002:000017A0       DIID_DispHTMLTable
 0002:000017B0       CLASS_HTMLTable
 0002:000017C0       DIID_DispHTMLTableCol
 0002:000017D0       CLASS_HTMLTableCol
 0002:000017E0       DIID_DispHTMLTableSection
 0002:000017F0       CLASS_HTMLTableSection
 0002:00001800       DIID_DispHTMLTableRow
 0002:00001810       CLASS_HTMLTableRow
 0002:00001820       DIID_DispHTMLTableCell
 0002:00001830       CLASS_HTMLTableCell
 0002:00001840       DIID_HTMLScriptEvents2
 0002:00001850       DIID_HTMLScriptEvents
 0002:00001860       IID_IHTMLScriptElement
 0002:00001870       DIID_DispHTMLScriptElement
 0002:00001880       CLASS_HTMLScriptElement
 0002:00001890       IID_IHTMLNoShowElement
 0002:000018A0       DIID_DispHTMLNoShowElement
 0002:000018B0       CLASS_HTMLNoShowElement
 0002:000018C0       DIID_HTMLObjectElementEvents2
 0002:000018D0       DIID_HTMLObjectElementEvents
 0002:000018E0       IID_IHTMLObjectElement
 0002:000018F0       IID_IHTMLObjectElement2
 0002:00001900       DIID_DispHTMLObjectElement
 0002:00001910       CLASS_HTMLObjectElement
 0002:00001920       IID_IHTMLFrameBase
 0002:00001930       DIID_DispHTMLFrameBase
 0002:00001940       CLASS_HTMLFrameBase
 0002:00001950       IID_IHTMLFrameElement
 0002:00001960       DIID_DispHTMLFrameElement
 0002:00001970       CLASS_HTMLFrameElement
 0002:00001980       IID_IHTMLIFrameElement
 0002:00001990       IID_IHTMLIFrameElement2
 0002:000019A0       DIID_DispHTMLIFrame
 0002:000019B0       CLASS_HTMLIFrame
 0002:000019C0       IID_IHTMLDivPosition
 0002:000019D0       IID_IHTMLFieldSetElement
 0002:000019E0       IID_IHTMLLegendElement
 0002:000019F0       DIID_DispHTMLDivPosition
 0002:00001A00       CLASS_HTMLDivPosition
 0002:00001A10       DIID_DispHTMLFieldSetElement
 0002:00001A20       CLASS_HTMLFieldSetElement
 0002:00001A30       DIID_DispHTMLLegendElement
 0002:00001A40       CLASS_HTMLLegendElement
 0002:00001A50       IID_IHTMLSpanFlow
 0002:00001A60       DIID_DispHTMLSpanFlow
 0002:00001A70       CLASS_HTMLSpanFlow
 0002:00001A80       IID_IHTMLFrameSetElement
 0002:00001A90       IID_IHTMLFrameSetElement2
 0002:00001AA0       DIID_DispHTMLFrameSetSite
 0002:00001AB0       CLASS_HTMLFrameSetSite
 0002:00001AC0       IID_IHTMLBGsound
 0002:00001AD0       DIID_DispHTMLBGsound
 0002:00001AE0       CLASS_HTMLBGsound
 0002:00001AF0       IID_IHTMLFontNamesCollection
 0002:00001B00       IID_IHTMLFontSizesCollection
 0002:00001B10       IID_IHTMLOptionsHolder
 0002:00001B20       DIID_HTMLStyleElementEvents2
 0002:00001B30       DIID_HTMLStyleElementEvents
 0002:00001B40       IID_IHTMLStyleElement
 0002:00001B50       DIID_DispHTMLStyleElement
 0002:00001B60       CLASS_HTMLStyleElement
 0002:00001B70       IID_IHTMLStyleFontFace
 0002:00001B80       CLASS_HTMLStyleFontFace
 0002:00001B90       IID_ICSSFilterSite
 0002:00001BA0       IID_IMarkupPointer
 0002:00001BB0       IID_IMarkupContainer
 0002:00001BC0       IID_IActiveIMMApp
 0002:00001BD0       IID_IEnumRegisterWordA
 0002:00001BE0       IID_IEnumRegisterWordW
 0002:00001BF0       IID_IEnumInputContext
 0002:00001C00       IID_ICSSFilter
 0002:00001C10       IID_ISecureUrlHost
 0002:00001C20       IID_IMarkupServices
 0002:00001C30       IID_IMarkupTextFrags
 0002:00001C40       IID_IXMLGenericParse
 0002:00001C50       IID_IHTMLDialog
 0002:00001C60       IID_IHTMLDialog2
 0002:00001C70       IID_IHTMLModelessInit
 0002:00001C80       CLASS_ThreadDialogProcParam
 0002:00001C90       CLASS_HTMLDialog
 0002:00001CA0       IID_IHTMLAppBehavior
 0002:00001CB0       DIID_DispHTMLAppBehavior
 0002:00001CC0       CLASS_HTMLAppBehavior
 0002:00001CD0       CLASS_OldHTMLDocument
 0002:00001CE0       CLASS_OldHTMLFormElement
 0002:00001CF0       DIID_DispIHTMLInputButtonElement
 0002:00001D00       CLASS_HTMLInputButtonElement
 0002:00001D10       DIID_DispIHTMLInputTextElement
 0002:00001D20       CLASS_HTMLInputTextElement
 0002:00001D30       DIID_DispIHTMLInputFileElement
 0002:00001D40       CLASS_HTMLInputFileElement
 0002:00001D50       DIID_DispIHTMLOptionButtonElement
 0002:00001D60       CLASS_HTMLOptionButtonElement
 0002:00001D70       DIID_DispIHTMLInputImage
 0002:00001D80       CLASS_htmlInputImage
 0002:00001D90       CEventDispIDs
 0002:00001D98       CControlData
 0002:00002000       ModuleIsLib
 0002:00002001       ModuleIsPackage
 0002:00002004       HInstance
 0002:00002008       .1
 0002:0000200C       tlsBuffer
 0002:00002010       .3
 0002:00002014       .1
 0002:00002018       .1
 0002:0000201C       .1
 0002:00002020       .1
 0002:00002024       .1
 0002:00002028       .1
 0002:0000202C       .1
 0002:00002030       .1
 0002:00002034       .3
 0002:00002038       .1
 0002:0000203C       .1
 0002:00002040       .1
 0002:00002044       .41
 0002:00002048       .111


Bound resource files

vclie.res
shdocvw.dcr
C:\DOCUME~1\~KOKOP~1\LOCALS~1\Temp\dtf278E.tmp


Program entry point at 0001:00019CD0
